(dp0
S'3d469c'
p1
I1
sS'3d469e'
p2
I1
sS'414a99'
p3
I1
sS'484d9b'
p4
I1
sS'484d9e'
p5
I1
sS'444da0'
p6
I1
sS'444685'
p7
I1
sS'3d4698'
p8
I2
sS'3d4699'
p9
I1
sS'3d4697'
p10
I1
sS'3d4694'
p11
I1
sS'3d4695'
p12
I1
sS'3f4895'
p13
I1
sS'3f4898'
p14
I1
sS'3f4899'
p15
I8
sS'434a9a'
p16
I1
sS'454b9c'
p17
I1
sS'4f4f9c'
p18
I1
sS'3e4aa2'
p19
I1
sS'3e4aa4'
p20
I1
sS'3b4596'
p21
I1
sS'56529b'
p22
I1
sS'404998'
p23
I1
sS'3b4599'
p24
I2
sS'3b4598'
p25
I1
sS'54529c'
p26
I1
sS'3b48a2'
p27
I1
sS'3f489f'
p28
I1
sS'3f489d'
p29
I2
sS'3f489e'
p30
I1
sS'3f489b'
p31
I6
sS'3f489c'
p32
I5
sS'3f489a'
p33
I7
sS'3b459c'
p34
I2
sS'40499a'
p35
I2
sS'40499b'
p36
I2
sS'40499c'
p37
I6
sS'40499d'
p38
I6
sS'40499e'
p39
I3
sS'40499f'
p40
I2
sS'3b459d'
p41
I1
sS'3c49a6'
p42
I1
sS'3c49a4'
p43
I1
sS'464ea4'
p44
I1
sS'3c4593'
p45
I1
sS'3d499e'
p46
I1
sS'394497'
p47
I1
sS'4950aa'
p48
I1
sS'394499'
p49
I1
sS'3d48a0'
p50
I2
sS'3d48a1'
p51
I4
sS'3d48a2'
p52
I1
sS'454a95'
p53
I1
sS'41499e'
p54
I2
sS'41499d'
p55
I2
sS'41499a'
p56
I4
sS'41499c'
p57
I1
sS'41499b'
p58
I6
sS'3b49a1'
p59
I1
sS'414aa4'
p60
I1
sS'39479d'
p61
I2
sS'39479e'
p62
I3
sS'39479b'
p63
I1
sS'39479c'
p64
I1
sS'414aa3'
p65
I1
sS'39479a'
p66
I1
sS'414999'
p67
I1
sS'404793'
p68
I1
sS'464da4'
p69
I1
sS'3d49a0'
p70
I1
sS'3d49a3'
p71
I1
sS'3d49a2'
p72
I1
sS'56539c'
p73
I2
sS'53519b'
p74
I1
sS'54539f'
p75
I1
sS'54539d'
p76
I1
sS'52519b'
p77
I1
sS'52519c'
p78
I2
sS'52519a'
p79
I1
sS'52519d'
p80
I3
sS'56549d'
p81
I1
sS'52529f'
p82
I1
sS'414a9e'
p83
I1
sS'414a9d'
p84
I2
sS'444da6'
p85
I1
sS'414a9c'
p86
I2
sS'374496'
p87
I1
sS'374495'
p88
I1
sS'3c469b'
p89
I6
sS'3a479d'
p90
I5
sS'5152a1'
p91
I1
sS'3a479b'
p92
I2
sS'3a479c'
p93
I2
sS'394596'
p94
I1
sS'394597'
p95
I1
sS'394599'
p96
I4
sS'414da4'
p97
I1
sS'3947a0'
p98
I2
sS'3947a1'
p99
I1
sS'39459a'
p100
I5
sS'39459b'
p101
I2
sS'39459c'
p102
I1
sS'3a4799'
p103
I1
sS'41458f'
p104
I1
sS'5352a0'
p105
I1
sS'4e4f9c'
p106
I2
sS'414896'
p107
I1
sS'414897'
p108
I1
sS'433b55'
p109
I1
sS'464c9e'
p110
I1
sS'54519c'
p111
I1
sS'3a4498'
p112
I1
sS'55539c'
p113
I3
sS'55539f'
p114
I1
sS'374394'
p115
I1
sS'55549e'
p116
I1
sS'3d479e'
p117
I1
sS'3d479d'
p118
I5
sS'505099'
p119
I2
sS'6e5fa2'
p120
I1
sS'3e49a2'
p121
I1
sS'3e49a4'
p122
I2
sS'3e49a5'
p123
I1
sS'3e49a7'
p124
I1
sS'39489e'
p125
I1
sS'474ea2'
p126
I1
sS'434ca0'
p127
I1
sS'434ca3'
p128
I1
sS'394899'
p129
I1
sS'3f4ba1'
p130
I1
sS'50509e'
p131
I1
sS'50509c'
p132
I2
sS'50509b'
p133
I2
sS'5052a2'
p134
I1
sS'484ea1'
p135
I1
sS'3f479a'
p136
I1
sS'3f479b'
p137
I1
sS'404a9f'
p138
I1
sS'3e48a0'
p139
I2
sS'3e48a2'
p140
I1
sS'3a4599'
p141
I1
sS'3a459a'
p142
I1
sS'3f499c'
p143
I3
sS'3f499b'
p144
I7
sS'3f499a'
p145
I2
sS'3a4594'
p146
I1
sS'3f499f'
p147
I1
sS'3a4596'
p148
I1
sS'3a4597'
p149
I1
sS'4f55ab'
p150
I1
sS'3f4795'
p151
I2
sS'3f4797'
p152
I1
sS'3f4796'
p153
I1
sS'3f4799'
p154
I2
sS'3f4aa9'
p155
I1
sS'3f4aa2'
p156
I1
sS'3f4aa1'
p157
I1
sS'3f4aa0'
p158
I2
sS'3f4aa5'
p159
I3
sS'434ea8'
p160
I1
sS'3c47a0'
p161
I2
sS'3c47a1'
p162
I1
sS'3a459b'
p163
I1
sS'3a459c'
p164
I3
sS'3a459d'
p165
I1
sS'444995'
p166
I1
sS'3c4694'
p167
I1
sS'3c4696'
p168
I1
sS'394696'
p169
I1
sS'394699'
p170
I3
sS'394698'
p171
I1
sS'3c4699'
p172
I2
sS'3c4698'
p173
I2
sS'3c4599'
p174
I1
sS'3c4597'
p175
I1
sS'3c4595'
p176
I1
sS'3b47a1'
p177
I1
sS'3b47a0'
p178
I2
sS'3c4590'
p179
I1
sS'42499b'
p180
I3
sS'42499c'
p181
I1
sS'39469c'
p182
I1
sS'3c469d'
p183
I6
sS'39469a'
p184
I1
sS'3c469f'
p185
I1
sS'3c469a'
p186
I3
sS'3c469c'
p187
I7
sS'414a9b'
p188
I1
sS'3b48a1'
p189
I3
sS'4f509b'
p190
I1
sS'4f509c'
p191
I3
sS'4f509d'
p192
I5
sS'4f509e'
p193
I1
sS'424998'
p194
I2
sS'3a479e'
p195
I1
sS'50519d'
p196
I1
sS'50519e'
p197
I1
sS'50519f'
p198
I1
sS'4f519d'
p199
I1
sS'414b9f'
p200
I1
sS'394594'
p201
I1
sS'484fa8'
p202
I1
sS'3e489e'
p203
I5
sS'3e489d'
p204
I7
sS'3e489f'
p205
I6
sS'3e489a'
p206
I8
sS'3e489c'
p207
I12
sS'3e489b'
p208
I7
sS'51529f'
p209
I1
sS'51529d'
p210
I1
sS'3d4799'
p211
I5
sS'675ca3'
p212
I1
sS'3e4899'
p213
I3
sS'3f49a3'
p214
I1
sS'3f49a1'
p215
I2
sS'3f49a0'
p216
I1
sS'444a97'
p217
I1
sS'3c4799'
p218
I1
sS'4d50a1'
p219
I1
sS'3b479e'
p220
I8
sS'3b479d'
p221
I24
sS'3b479f'
p222
I7
sS'3b479c'
p223
I28
sS'3b479b'
p224
I12
sS'5657a8'
p225
I1
sS'4f50a0'
p226
I1
sS'3c489f'
p227
I6
sS'3c489e'
p228
I4
sS'3c489d'
p229
I5
sS'3c489c'
p230
I2
sS'3b459b'
p231
I1
sS'424ca3'
p232
I1
sS'3b4799'
p233
I1
sS'3b459a'
p234
I2
sS'3c479a'
p235
I1
sS'3c479b'
p236
I10
sS'3c479c'
p237
I5
sS'3c479d'
p238
I13
sS'3c479e'
p239
I10
sS'3c479f'
p240
I1
sS'51519c'
p241
I2
sS'51519b'
p242
I1
sS'51519e'
p243
I2
sS'51519d'
p244
I2
sS'3e499b'
p245
I1
sS'3e499c'
p246
I1
sS'3e499d'
p247
I1
sS'3e499e'
p248
I3
sS'3e499f'
p249
I2
sS'454da3'
p250
I1
sS'454da5'
p251
I1
sS'3a4699'
p252
I3
sS'3a4698'
p253
I2
sS'3a4697'
p254
I1
sS'474da2'
p255
I1
sS'424ba4'
p256
I1
sS'424ba1'
p257
I1
sS'424ba0'
p258
I1
sS'3a469c'
p259
I9
sS'3a469b'
p260
I13
sS'3a469a'
p261
I6
sS'3a469f'
p262
I1
sS'3a469e'
p263
I8
sS'3a469d'
p264
I9
sS'38469b'
p265
I1
sS'38469c'
p266
I1
sS'3b469a'
p267
I4
sS'3b469b'
p268
I13
sS'3b469c'
p269
I15
sS'3b469d'
p270
I21
sS'3b469e'
p271
I5
sS'3e4696'
p272
I1
sS'3e4699'
p273
I2
sS'5b58a8'
p274
I1
sS'384698'
p275
I2
sS'3c458e'
p276
I1
sS'40468e'
p277
I1
sS'3d458f'
p278
I1
sS'384598'
p279
I2
sS'3b4697'
p280
I2
sS'384595'
p281
I4
sS'3b4699'
p282
I3
sS'384597'
p283
I1
sS'474b9a'
p284
I1
sS'474b9b'
p285
I1
sS'605aa5'
p286
I1
sS'434998'
p287
I1
sS'414aa0'
p288
I2
sS'434995'
p289
I1
sS'3d47a0'
p290
I1
sS'3f499e'
p291
I4
sS'3c48a4'
p292
I2
sS'3c48a3'
p293
I1
sS'51509a'
p294
I1
sS'4e4b86'
p295
I1
sS'414898'
p296
I1
sS'444b9a'
p297
I1
sS'5455a5'
p298
I1
sS'414ba2'
p299
I1
sS'414ba3'
p300
I1
sS'414ba1'
p301
I1
sS'4b50a2'
p302
I1
sS'3a499d'
p303
I1
sS'3d499f'
p304
I1
sS'404aa0'
p305
I1
sS'404aa1'
p306
I1
sS'57549d'
p307
I1
sS'57549c'
p308
I1
sS'3c48a2'
p309
I2
sS'51509c'
p310
I1
sS'424a96'
p311
I1
sS'3d489b'
p312
I2
sS'3e4797'
p313
I1
sS'39469b'
p314
I5
sS'3d479f'
p315
I2
sS'3e4798'
p316
I5
sS'3e4799'
p317
I1
sS'3d479c'
p318
I7
sS'3d479b'
p319
I6
sS'3d479a'
p320
I5
sS'424b9e'
p321
I1
sS'58569d'
p322
I1
sS'384498'
p323
I1
sS'384499'
p324
I1
sS'384492'
p325
I1
sS'384494'
p326
I1
sS'404ba6'
p327
I1
sS'404ba5'
p328
I2
sS'55529b'
p329
I1
sS'424a9d'
p330
I1
sS'424a9b'
p331
I1
sS'424a9c'
p332
I3
sS'384393'
p333
I1
sS'3e479b'
p334
I3
sS'3e479c'
p335
I2
sS'3e479a'
p336
I3
sS'3e479d'
p337
I1
sS'3d4798'
p338
I1
sS'3d4797'
p339
I1
sS'3d4796'
p340
I1
sS'3c47a2'
p341
I1
sS'3f499d'
p342
I5
sS'3a47a0'
p343
I3
sS'404896'
p344
I2
sS'4049a2'
p345
I1
sS'4049a3'
p346
I1
sS'39469e'
p347
I1
sS'39469d'
p348
I2
sS'3d489c'
p349
I5
sS'3d489d'
p350
I17
sS'3d489e'
p351
I4
sS'3d489f'
p352
I2
sS'40489a'
p353
I1
sS'3f4a9e'
p354
I1
sS'40489b'
p355
I4
sS'3b489b'
p356
I1
sS'3b489f'
p357
I1
sS'3b489e'
p358
I3
s.