(dp0
S'8d5041'
p1
I2
sS'8d5040'
p2
I8
sS'8e5344'
p3
I2
sS'874c3b'
p4
I1
sS'8d4e3d'
p5
I5
sS'8d4e3e'
p6
I2
sS'864d3e'
p7
I1
sS'905344'
p8
I2
sS'864d3f'
p9
I1
sS'8a4c3a'
p10
I10
sS'8a4c3b'
p11
I11
sS'965541'
p12
I1
sS'904d3a'
p13
I1
sS'8d5042'
p14
I1
sS'864e3e'
p15
I1
sS'894e40'
p16
I1
sS'91503f'
p17
I1
sS'8a4b3a'
p18
I4
sS'895042'
p19
I1
sS'8b5141'
p20
I1
sS'8e5346'
p21
I1
sS'904e3c'
p22
I1
sS'8c5041'
p23
I5
sS'8d4d3c'
p24
I1
sS'904f3c'
p25
I4
sS'8a4f3e'
p26
I4
sS'8a4f3f'
p27
I21
sS'8d4d3b'
p28
I3
sS'874c3d'
p29
I2
sS'854d3e'
p30
I1
sS'884c3d'
p31
I1
sS'8b503f'
p32
I4
sS'8e503d'
p33
I1
sS'874c3e'
p34
I1
sS'8e503f'
p35
I2
sS'8a4b39'
p36
I2
sS'8c4f3f'
p37
I6
sS'925140'
p38
I2
sS'8c4f3d'
p39
I1
sS'8c4f3e'
p40
I4
sS'8c4d3a'
p41
I1
sS'8c4f3c'
p42
I1
sS'8d503e'
p43
I2
sS'8c4e3c'
p44
I6
sS'914f3d'
p45
I1
sS'8c4e3e'
p46
I7
sS'8c4e3d'
p47
I8
sS'8d4e3b'
p48
I1
sS'8c4e3f'
p49
I1
sS'8b5142'
p50
I4
sS'8b5143'
p51
I1
sS'8d4d3d'
p52
I1
sS'914f3b'
p53
I3
sS'92523f'
p54
I1
sS'92503c'
p55
I4
sS'8c5344'
p56
I2
sS'92503e'
p57
I1
sS'92503d'
p58
I4
sS'935546'
p59
I1
sS'8b4f3f'
p60
I11
sS'8e503e'
p61
I2
sS'915140'
p62
I1
sS'be8280'
p63
I1
sS'8b4d3c'
p64
I8
sS'8c5242'
p65
I1
sS'8b5041'
p66
I8
sS'8e4f3d'
p67
I1
sS'925240'
p68
I5
sS'91503e'
p69
I1
sS'8d4e3c'
p70
I2
sS'91503c'
p71
I2
sS'8a503f'
p72
I2
sS'91513f'
p73
I1
sS'8f503f'
p74
I3
sS'895143'
p75
I2
sS'8f503d'
p76
I1
sS'8f503e'
p77
I3
sS'915241'
p78
I1
sS'914f3e'
p79
I1
sS'915240'
p80
I2
sS'8e4d3b'
p81
I1
sS'97594b'
p82
I1
sS'90503d'
p83
I2
sS'924f3d'
p84
I1
sS'8c5142'
p85
I1
sS'8b5040'
p86
I6
sS'8c5140'
p87
I2
sS'8e4e3c'
p88
I2
sS'8e4e3b'
p89
I5
sS'8e4e3a'
p90
I1
sS'995a4a'
p91
I1
sS'884b39'
p92
I1
sS'93503c'
p93
I2
sS'915649'
p94
I1
sS'864e3f'
p95
I3
sS'8f5445'
p96
I3
sS'8d5140'
p97
I3
sS'8d5141'
p98
I1
sS'8d5142'
p99
I3
sS'94503d'
p100
I2
sS'975748'
p101
I1
sS'864f41'
p102
I4
sS'884f40'
p103
I3
sS'a46a66'
p104
I1
sS'91503d'
p105
I3
sS'a5685c'
p106
I1
sS'895044'
p107
I1
sS'965441'
p108
I1
sS'925241'
p109
I1
sS'8f584b'
p110
I1
sS'8a5141'
p111
I2
sS'8a5143'
p112
I2
sS'874e40'
p113
I5
sS'874e41'
p114
I1
sS'874d3d'
p115
I5
sS'8a4c39'
p116
I2
sS'94594b'
p117
I1
sS'8e5242'
p118
I1
sS'8c4c38'
p119
I2
sS'935240'
p120
I2
sS'884b3a'
p121
I3
sS'8e5141'
p122
I1
sS'8e5140'
p123
I3
sS'8e5142'
p124
I4
sS'945342'
p125
I1
sS'8f5244'
p126
I2
sS'94513d'
p127
I1
sS'904f3e'
p128
I1
sS'904f3b'
p129
I2
sS'884c3a'
p130
I2
sS'8f5243'
p131
I5
sS'884c3c'
p132
I7
sS'914e3b'
p133
I1
sS'8c4d3b'
p134
I4
sS'9b5f50'
p135
I1
sS'8f503c'
p136
I1
sS'884c3b'
p137
I4
sS'864c3b'
p138
I1
sS'934f3c'
p139
I1
sS'934f3b'
p140
I4
sS'885040'
p141
I1
sS'885042'
p142
I1
sS'894f41'
p143
I1
sS'894f40'
p144
I8
sS'894e3c'
p145
I2
sS'924e3b'
p146
I3
sS'874d3c'
p147
I2
sS'925445'
p148
I1
sS'925141'
p149
I1
sS'8d4f40'
p150
I4
sS'8b4f41'
p151
I1
sS'905243'
p152
I1
sS'884d3f'
p153
I1
sS'884d3e'
p154
I6
sS'884d3d'
p155
I9
sS'884d3c'
p156
I3
sS'894c3c'
p157
I3
sS'8c5040'
p158
I5
sS'884f3f'
p159
I4
sS'944f3b'
p160
I1
sS'944f3c'
p161
I2
sS'8b4b38'
p162
I2
sS'90513f'
p163
I2
sS'894d3d'
p164
I7
sS'8d503f'
p165
I2
sS'924d3a'
p166
I1
sS'8d5242'
p167
I2
sS'8b4f3e'
p168
I7
sS'8b4d3b'
p169
I8
sS'8f5546'
p170
I1
sS'8b4d3d'
p171
I11
sS'8d5244'
p172
I1
sS'8c4d3d'
p173
I2
sS'905548'
p174
I1
sS'884e40'
p175
I1
sS'9d615e'
p176
I1
sS'864e40'
p177
I2
sS'905141'
p178
I1
sS'905140'
p179
I2
sS'945848'
p180
I1
sS'83412e'
p181
I1
sS'904e3b'
p182
I1
sS'95584a'
p183
I1
sS'8a4f41'
p184
I1
sS'874d3e'
p185
I11
sS'8b5243'
p186
I1
sS'874f42'
p187
I1
sS'8e5040'
p188
I1
sS'8b5242'
p189
I1
sS'894b3a'
p190
I3
sS'874f41'
p191
I4
sS'884e3f'
p192
I6
sS'884e3d'
p193
I8
sS'884e3e'
p194
I9
sS'8e4c38'
p195
I2
sS'935547'
p196
I1
sS'8a4e3e'
p197
I12
sS'8b4e3c'
p198
I1
sS'8b4e3d'
p199
I6
sS'8b4e3e'
p200
I9
sS'8b4e3f'
p201
I2
sS'8b4c3b'
p202
I7
sS'8f5345'
p203
I2
sS'8b4c3a'
p204
I7
sS'9d6155'
p205
I1
sS'8a4f40'
p206
I6
sS'8f5342'
p207
I1
sS'8b4b3a'
p208
I1
sS'8b5344'
p209
I1
sS'8c5141'
p210
I1
sS'91574b'
p211
I1
sS'874b39'
p212
I1
sS'874e3e'
p213
I4
sS'874e3f'
p214
I7
sS'925242'
p215
I1
sS'935341'
p216
I2
sS'93503d'
p217
I4
sS'935748'
p218
I1
sS'8c503f'
p219
I4
sS'8b4f3d'
p220
I3
sS'8e4f3e'
p221
I3
sS'8e4f3f'
p222
I1
sS'874c3c'
p223
I1
sS'8e4f3c'
p224
I4
sS'8d4d39'
p225
I1
sS'8a5040'
p226
I14
sS'8a5041'
p227
I5
sS'8a4d3d'
p228
I1
sS'8a4d3b'
p229
I4
sS'8a4d3c'
p230
I11
sS'8a4d3a'
p231
I3
sS'895040'
p232
I3
sS'895041'
p233
I3
sS'8b4f40'
p234
I9
sS'8c4d3c'
p235
I4
sS'894d3b'
p236
I6
sS'894d3c'
p237
I14
sS'8a4e3f'
p238
I5
sS'894e3f'
p239
I3
sS'894e3e'
p240
I30
sS'894e3d'
p241
I2
sS'894c39'
p242
I1
sS'905549'
p243
I3
sS'955240'
p244
I1
sS'8c4c3b'
p245
I1
sS'8c4c3a'
p246
I2
sS'8a4e3d'
p247
I8
sS'8e513f'
p248
I2
sS'905040'
p249
I1
sS'905041'
p250
I1
sS'8a4e3c'
p251
I1
sS'894f3e'
p252
I3
sS'894f3f'
p253
I10
sS'924f3e'
p254
I1
sS'8f4f3c'
p255
I2
sS'90574b'
p256
I1
sS'8f4f40'
p257
I1
sS'8e5444'
p258
I1
sS'8f4d38'
p259
I1
sS'8e5446'
p260
I1
sS'8e5447'
p261
I1
sS'8d5343'
p262
I2
sS'8f5140'
p263
I1
sS'8d5345'
p264
I1
sS'8c4e3b'
p265
I1
sS'8f5344'
p266
I2
sS'8f4e3d'
p267
I1
sS'874f40'
p268
I5
sS'8f5242'
p269
I1
sS'915447'
p270
I1
sS'904e3a'
p271
I2
sS'915445'
p272
I1
sS'925645'
p273
I1
sS'905446'
p274
I1
sS'8f4f3e'
p275
I1
sS'905444'
p276
I1
sS'945240'
p277
I1
sS'874f3f'
p278
I1
sS'8c4c39'
p279
I1
sS'8c4f40'
p280
I2
sS'924f3b'
p281
I4
sS'8f4e3a'
p282
I2
sS'8f4e3b'
p283
I2
sS'8f4e3c'
p284
I6
sS'854937'
p285
I1
sS'914f3c'
p286
I1
sS'8d5143'
p287
I1
sS'894c3a'
p288
I4
sS'92513f'
p289
I4
sS'894c3b'
p290
I10
sS'904f3d'
p291
I2
sS'8f4d39'
p292
I1
sS'894d3e'
p293
I4
sS'8e5445'
p294
I1
sS'915142'
p295
I1
sS'8f4f3b'
p296
I1
sS'894b3b'
p297
I1
sS'945645'
p298
I1
sS'924f3c'
p299
I4
sS'8f5042'
p300
I1
sS'8f5040'
p301
I2
sS'8d4f3e'
p302
I6
sS'8d4f3d'
p303
I3
sS'90503f'
p304
I2
sS'8d4f3f'
p305
I5
sS'8d4f3c'
p306
I2
sS'8f4f3d'
p307
I4
sS'925342'
p308
I3
sS'925341'
p309
I1
sS'894b38'
p310
I1
sS'894b39'
p311
I3
sS'8c5343'
p312
I1
sS'955646'
p313
I1
s.