HW_DEVICE="attiny84"
HW_SYSHZ="8000000"
PWM="counter0compare0"
CLKDIV="64"
COUNTMODE="up_loop"

00000000 <__vectors>:
   0:	10 c0       	rjmp	.+32     	; 0x22 <__ctors_end>
   2:	1f c0       	rjmp	.+62     	; 0x42 <__bad_interrupt>
   4:	1e c0       	rjmp	.+60     	; 0x42 <__bad_interrupt>
   6:	1d c0       	rjmp	.+58     	; 0x42 <__bad_interrupt>
   8:	1c c0       	rjmp	.+56     	; 0x42 <__bad_interrupt>
   a:	1b c0       	rjmp	.+54     	; 0x42 <__bad_interrupt>
   c:	1a c0       	rjmp	.+52     	; 0x42 <__bad_interrupt>
   e:	19 c0       	rjmp	.+50     	; 0x42 <__bad_interrupt>
  10:	18 c0       	rjmp	.+48     	; 0x42 <__bad_interrupt>
  12:	17 c0       	rjmp	.+46     	; 0x42 <__bad_interrupt>
  14:	16 c0       	rjmp	.+44     	; 0x42 <__bad_interrupt>
  16:	16 c0       	rjmp	.+44     	; 0x44 <__vector_11>
  18:	14 c0       	rjmp	.+40     	; 0x42 <__bad_interrupt>
  1a:	13 c0       	rjmp	.+38     	; 0x42 <__bad_interrupt>
  1c:	12 c0       	rjmp	.+36     	; 0x42 <__bad_interrupt>
  1e:	11 c0       	rjmp	.+34     	; 0x42 <__bad_interrupt>
  20:	10 c0       	rjmp	.+32     	; 0x42 <__bad_interrupt>

00000022 <__ctors_end>:
  22:	11 24       	eor	r1, r1
  24:	1f be       	out	0x3f, r1	; 63
  26:	cf e5       	ldi	r28, 0x5F	; 95
  28:	d2 e0       	ldi	r29, 0x02	; 2
  2a:	de bf       	out	0x3e, r29	; 62
  2c:	cd bf       	out	0x3d, r28	; 61

0000002e <__do_clear_bss>:
  2e:	20 e0       	ldi	r18, 0x00	; 0
  30:	a0 e6       	ldi	r26, 0x60	; 96
  32:	b0 e0       	ldi	r27, 0x00	; 0
  34:	01 c0       	rjmp	.+2      	; 0x38 <.do_clear_bss_start>

00000036 <.do_clear_bss_loop>:
  36:	1d 92       	st	X+, r1

00000038 <.do_clear_bss_start>:
  38:	a2 36       	cpi	r26, 0x62	; 98
  3a:	b2 07       	cpc	r27, r18
  3c:	e1 f7       	brne	.-8      	; 0x36 <.do_clear_bss_loop>
  3e:	30 d0       	rcall	.+96     	; 0xa0 <main>
  40:	3b c0       	rjmp	.+118    	; 0xb8 <_exit>

00000042 <__bad_interrupt>:
  42:	de cf       	rjmp	.-68     	; 0x0 <__vectors>

00000044 <__vector_11>:
  44:	1f 92       	push	r1
  46:	0f 92       	push	r0
  48:	0f b6       	in	r0, 0x3f	; 63
  4a:	0f 92       	push	r0
  4c:	11 24       	eor	r1, r1
  4e:	8f 93       	push	r24
  50:	9f 93       	push	r25
  52:	90 91 61 00 	lds	r25, 0x0061
  56:	80 91 60 00 	lds	r24, 0x0060
  5a:	99 23       	and	r25, r25
  5c:	19 f0       	breq	.+6      	; 0x64 <__vector_11+0x20>
  5e:	91 30       	cpi	r25, 0x01	; 1
  60:	11 f4       	brne	.+4      	; 0x66 <__vector_11+0x22>
  62:	80 95       	com	r24
  64:	86 bf       	out	0x36, r24	; 54
  66:	80 91 60 00 	lds	r24, 0x0060
  6a:	8f 5f       	subi	r24, 0xFF	; 255
  6c:	80 93 60 00 	sts	0x0060, r24
  70:	81 11       	cpse	r24, r1
  72:	0f c0       	rjmp	.+30     	; 0x92 <__vector_11+0x4e>
  74:	80 91 61 00 	lds	r24, 0x0061
  78:	8f 5f       	subi	r24, 0xFF	; 255
  7a:	83 70       	andi	r24, 0x03	; 3
  7c:	80 93 61 00 	sts	0x0061, r24
  80:	82 30       	cpi	r24, 0x02	; 2
  82:	11 f4       	brne	.+4      	; 0x88 <__vector_11+0x44>
  84:	10 be       	out	0x30, r1	; 48
  86:	05 c0       	rjmp	.+10     	; 0x92 <__vector_11+0x4e>
  88:	81 11       	cpse	r24, r1
  8a:	03 c0       	rjmp	.+6      	; 0x92 <__vector_11+0x4e>
  8c:	ba 9a       	sbi	0x17, 2	; 23
  8e:	83 e8       	ldi	r24, 0x83	; 131
  90:	80 bf       	out	0x30, r24	; 48
  92:	9f 91       	pop	r25
  94:	8f 91       	pop	r24
  96:	0f 90       	pop	r0
  98:	0f be       	out	0x3f, r0	; 63
  9a:	0f 90       	pop	r0
  9c:	1f 90       	pop	r1
  9e:	18 95       	reti

000000a0 <main>:
  a0:	80 e2       	ldi	r24, 0x20	; 32
  a2:	85 bf       	out	0x35, r24	; 53
  a4:	ba 9a       	sbi	0x17, 2	; 23
  a6:	83 e8       	ldi	r24, 0x83	; 131
  a8:	80 bf       	out	0x30, r24	; 48
  aa:	83 e0       	ldi	r24, 0x03	; 3
  ac:	83 bf       	out	0x33, r24	; 51
  ae:	81 e0       	ldi	r24, 0x01	; 1
  b0:	89 bf       	out	0x39, r24	; 57
  b2:	78 94       	sei
  b4:	88 95       	sleep
  b6:	fe cf       	rjmp	.-4      	; 0xb4 <main+0x14>

000000b8 <_exit>:
  b8:	f8 94       	cli

000000ba <__stop_program>:
  ba:	ff cf       	rjmp	.-2      	; 0xba <__stop_program>
