HW_DEVICE="atmega328p"
hw_syshz="16000000"
PIN_LED="pin_pb5"
COUNTER="counter0"
CLKDIV="64"
COUNTMODE="up_loop"
PERIOD="0.5"

00000000 <__vectors>:
   0:	0c 94 34 00 	jmp	0x68	; 0x68 <__ctors_end>
   4:	0c 94 46 00 	jmp	0x8c	; 0x8c <__bad_interrupt>
   8:	0c 94 46 00 	jmp	0x8c	; 0x8c <__bad_interrupt>
   c:	0c 94 46 00 	jmp	0x8c	; 0x8c <__bad_interrupt>
  10:	0c 94 46 00 	jmp	0x8c	; 0x8c <__bad_interrupt>
  14:	0c 94 46 00 	jmp	0x8c	; 0x8c <__bad_interrupt>
  18:	0c 94 46 00 	jmp	0x8c	; 0x8c <__bad_interrupt>
  1c:	0c 94 46 00 	jmp	0x8c	; 0x8c <__bad_interrupt>
  20:	0c 94 46 00 	jmp	0x8c	; 0x8c <__bad_interrupt>
  24:	0c 94 46 00 	jmp	0x8c	; 0x8c <__bad_interrupt>
  28:	0c 94 46 00 	jmp	0x8c	; 0x8c <__bad_interrupt>
  2c:	0c 94 46 00 	jmp	0x8c	; 0x8c <__bad_interrupt>
  30:	0c 94 46 00 	jmp	0x8c	; 0x8c <__bad_interrupt>
  34:	0c 94 46 00 	jmp	0x8c	; 0x8c <__bad_interrupt>
  38:	0c 94 46 00 	jmp	0x8c	; 0x8c <__bad_interrupt>
  3c:	0c 94 46 00 	jmp	0x8c	; 0x8c <__bad_interrupt>
  40:	0c 94 46 00 	jmp	0x8c	; 0x8c <__bad_interrupt>
  44:	0c 94 46 00 	jmp	0x8c	; 0x8c <__bad_interrupt>
  48:	0c 94 46 00 	jmp	0x8c	; 0x8c <__bad_interrupt>
  4c:	0c 94 46 00 	jmp	0x8c	; 0x8c <__bad_interrupt>
  50:	0c 94 46 00 	jmp	0x8c	; 0x8c <__bad_interrupt>
  54:	0c 94 46 00 	jmp	0x8c	; 0x8c <__bad_interrupt>
  58:	0c 94 46 00 	jmp	0x8c	; 0x8c <__bad_interrupt>
  5c:	0c 94 46 00 	jmp	0x8c	; 0x8c <__bad_interrupt>
  60:	0c 94 46 00 	jmp	0x8c	; 0x8c <__bad_interrupt>
  64:	0c 94 46 00 	jmp	0x8c	; 0x8c <__bad_interrupt>

00000068 <__ctors_end>:
  68:	11 24       	eor	r1, r1
  6a:	1f be       	out	0x3f, r1	; 63
  6c:	cf ef       	ldi	r28, 0xFF	; 255
  6e:	d8 e0       	ldi	r29, 0x08	; 8
  70:	de bf       	out	0x3e, r29	; 62
  72:	cd bf       	out	0x3d, r28	; 61

00000074 <__do_clear_bss>:
  74:	11 e0       	ldi	r17, 0x01	; 1
  76:	a0 e0       	ldi	r26, 0x00	; 0
  78:	b1 e0       	ldi	r27, 0x01	; 1
  7a:	01 c0       	rjmp	.+2      	; 0x7e <.do_clear_bss_start>

0000007c <.do_clear_bss_loop>:
  7c:	1d 92       	st	X+, r1

0000007e <.do_clear_bss_start>:
  7e:	a1 30       	cpi	r26, 0x01	; 1
  80:	b1 07       	cpc	r27, r17
  82:	e1 f7       	brne	.-8      	; 0x7c <.do_clear_bss_loop>
  84:	0e 94 48 00 	call	0x90	; 0x90 <main>
  88:	0c 94 5d 00 	jmp	0xba	; 0xba <_exit>

0000008c <__bad_interrupt>:
  8c:	0c 94 00 00 	jmp	0	; 0x0 <__vectors>

00000090 <main>:
      /*
       *  Just 1 bit to be modified at C address < 0x40 (ASM address < 0x20): use
       *  instruction CBI or SBI
       */
      if ( wm & r->mvalue )
	*p |= wm ; /* sbi */
  90:	25 9a       	sbi	0x04, 5	; 4
     */
    r->ovalue = ((r->ovalue & ~wm) | (r->mvalue & wm)) & ~rfm ;

    /*  Write new value
     */
    *p = r->ovalue | (rfm & r->mmask & r->mvalue) ;
  92:	83 e0       	ldi	r24, 0x03	; 3
  94:	84 bd       	out	0x24, r24	; 36
  96:	8b e0       	ldi	r24, 0x0B	; 11
  98:	85 bd       	out	0x25, r24	; 37
  9a:	8a ef       	ldi	r24, 0xFA	; 250
  9c:	87 bd       	out	0x27, r24	; 39
   */
  hwa_commit();

  static uint8_t n ;
  for(;;) {
    if ( hw_stat(COUNTER).overflow ) {
  9e:	a8 9b       	sbis	0x15, 0	; 21
  a0:	fe cf       	rjmp	.-4      	; 0x9e <main+0xe>
    /*
     *  Just 1 bit to be written at C address < 0x40 (ASM address < 0x20): use
     *  sbi/cbi
     */
    if ( v )
      *p |= wm ; /* sbi */
  a2:	a8 9a       	sbi	0x15, 0	; 21
      hw_clear_irqf( COUNTER, overflow );
      n++ ;
  a4:	80 91 00 01 	lds	r24, 0x0100
  a8:	8f 5f       	subi	r24, 0xFF	; 255
  aa:	80 93 00 01 	sts	0x0100, r24
      if ( n >= (uint8_t)(PERIOD / 2.0 / 0.001) ) {
  ae:	89 3f       	cpi	r24, 0xF9	; 249
  b0:	b0 f3       	brcs	.-20     	; 0x9e <main+0xe>
        n = 0 ;
  b2:	10 92 00 01 	sts	0x0100, r1
  b6:	1d 9a       	sbi	0x03, 5	; 3
  b8:	f2 cf       	rjmp	.-28     	; 0x9e <main+0xe>

000000ba <_exit>:
  ba:	f8 94       	cli

000000bc <__stop_program>:
  bc:	ff cf       	rjmp	.-2      	; 0xbc <__stop_program>
