HW_DEVICE="atmega32u4"
hw_syshz="16000000"
PIN_LED="hw_pin_pb0"
COUNTER="hw_counter3"
CLKDIV="1"
COUNTMODE="loop_up"
PERIOD="0.5"

build/pro-micro/out.elf:     file format elf32-avr


Disassembly of section .text:

00000000 <__vectors>:
   0:	0c 94 56 00 	jmp	0xac	; 0xac <__ctors_end>
   4:	0c 94 68 00 	jmp	0xd0	; 0xd0 <__bad_interrupt>
   8:	0c 94 68 00 	jmp	0xd0	; 0xd0 <__bad_interrupt>
   c:	0c 94 68 00 	jmp	0xd0	; 0xd0 <__bad_interrupt>
  10:	0c 94 68 00 	jmp	0xd0	; 0xd0 <__bad_interrupt>
  14:	0c 94 68 00 	jmp	0xd0	; 0xd0 <__bad_interrupt>
  18:	0c 94 68 00 	jmp	0xd0	; 0xd0 <__bad_interrupt>
  1c:	0c 94 68 00 	jmp	0xd0	; 0xd0 <__bad_interrupt>
  20:	0c 94 68 00 	jmp	0xd0	; 0xd0 <__bad_interrupt>
  24:	0c 94 68 00 	jmp	0xd0	; 0xd0 <__bad_interrupt>
  28:	0c 94 68 00 	jmp	0xd0	; 0xd0 <__bad_interrupt>
  2c:	0c 94 68 00 	jmp	0xd0	; 0xd0 <__bad_interrupt>
  30:	0c 94 68 00 	jmp	0xd0	; 0xd0 <__bad_interrupt>
  34:	0c 94 68 00 	jmp	0xd0	; 0xd0 <__bad_interrupt>
  38:	0c 94 68 00 	jmp	0xd0	; 0xd0 <__bad_interrupt>
  3c:	0c 94 68 00 	jmp	0xd0	; 0xd0 <__bad_interrupt>
  40:	0c 94 68 00 	jmp	0xd0	; 0xd0 <__bad_interrupt>
  44:	0c 94 68 00 	jmp	0xd0	; 0xd0 <__bad_interrupt>
  48:	0c 94 68 00 	jmp	0xd0	; 0xd0 <__bad_interrupt>
  4c:	0c 94 68 00 	jmp	0xd0	; 0xd0 <__bad_interrupt>
  50:	0c 94 68 00 	jmp	0xd0	; 0xd0 <__bad_interrupt>
  54:	0c 94 68 00 	jmp	0xd0	; 0xd0 <__bad_interrupt>
  58:	0c 94 68 00 	jmp	0xd0	; 0xd0 <__bad_interrupt>
  5c:	0c 94 68 00 	jmp	0xd0	; 0xd0 <__bad_interrupt>
  60:	0c 94 68 00 	jmp	0xd0	; 0xd0 <__bad_interrupt>
  64:	0c 94 68 00 	jmp	0xd0	; 0xd0 <__bad_interrupt>
  68:	0c 94 68 00 	jmp	0xd0	; 0xd0 <__bad_interrupt>
  6c:	0c 94 68 00 	jmp	0xd0	; 0xd0 <__bad_interrupt>
  70:	0c 94 68 00 	jmp	0xd0	; 0xd0 <__bad_interrupt>
  74:	0c 94 68 00 	jmp	0xd0	; 0xd0 <__bad_interrupt>
  78:	0c 94 68 00 	jmp	0xd0	; 0xd0 <__bad_interrupt>
  7c:	0c 94 68 00 	jmp	0xd0	; 0xd0 <__bad_interrupt>
  80:	0c 94 68 00 	jmp	0xd0	; 0xd0 <__bad_interrupt>
  84:	0c 94 68 00 	jmp	0xd0	; 0xd0 <__bad_interrupt>
  88:	0c 94 68 00 	jmp	0xd0	; 0xd0 <__bad_interrupt>
  8c:	0c 94 68 00 	jmp	0xd0	; 0xd0 <__bad_interrupt>
  90:	0c 94 68 00 	jmp	0xd0	; 0xd0 <__bad_interrupt>
  94:	0c 94 68 00 	jmp	0xd0	; 0xd0 <__bad_interrupt>
  98:	0c 94 68 00 	jmp	0xd0	; 0xd0 <__bad_interrupt>
  9c:	0c 94 68 00 	jmp	0xd0	; 0xd0 <__bad_interrupt>
  a0:	0c 94 68 00 	jmp	0xd0	; 0xd0 <__bad_interrupt>
  a4:	0c 94 68 00 	jmp	0xd0	; 0xd0 <__bad_interrupt>
  a8:	0c 94 68 00 	jmp	0xd0	; 0xd0 <__bad_interrupt>

000000ac <__ctors_end>:
  ac:	11 24       	eor	r1, r1
  ae:	1f be       	out	0x3f, r1	; 63
  b0:	cf ef       	ldi	r28, 0xFF	; 255
  b2:	da e0       	ldi	r29, 0x0A	; 10
  b4:	de bf       	out	0x3e, r29	; 62
  b6:	cd bf       	out	0x3d, r28	; 61

000000b8 <__do_clear_bss>:
  b8:	11 e0       	ldi	r17, 0x01	; 1
  ba:	a0 e0       	ldi	r26, 0x00	; 0
  bc:	b1 e0       	ldi	r27, 0x01	; 1
  be:	01 c0       	rjmp	.+2      	; 0xc2 <.do_clear_bss_start>

000000c0 <.do_clear_bss_loop>:
  c0:	1d 92       	st	X+, r1

000000c2 <.do_clear_bss_start>:
  c2:	a1 30       	cpi	r26, 0x01	; 1
  c4:	b1 07       	cpc	r27, r17
  c6:	e1 f7       	brne	.-8      	; 0xc0 <.do_clear_bss_loop>
  c8:	0e 94 6a 00 	call	0xd4	; 0xd4 <main>
  cc:	0c 94 85 00 	jmp	0x10a	; 0x10a <_exit>

000000d0 <__bad_interrupt>:
  d0:	0c 94 00 00 	jmp	0	; 0x0 <__vectors>

000000d4 <main>:
  d4:	20 9a       	sbi	0x04, 0	; 4
  d6:	83 e0       	ldi	r24, 0x03	; 3
  d8:	80 93 90 00 	sts	0x0090, r24
  dc:	89 e1       	ldi	r24, 0x19	; 25
  de:	80 93 91 00 	sts	0x0091, r24
  e2:	80 e8       	ldi	r24, 0x80	; 128
  e4:	9e e3       	ldi	r25, 0x3E	; 62
  e6:	90 93 99 00 	sts	0x0099, r25
  ea:	80 93 98 00 	sts	0x0098, r24
  ee:	c0 9b       	sbis	0x18, 0	; 24
  f0:	fe cf       	rjmp	.-4      	; 0xee <main+0x1a>
  f2:	c0 9a       	sbi	0x18, 0	; 24
  f4:	80 91 00 01 	lds	r24, 0x0100
  f8:	8f 5f       	subi	r24, 0xFF	; 255
  fa:	80 93 00 01 	sts	0x0100, r24
  fe:	89 3f       	cpi	r24, 0xF9	; 249
 100:	b0 f3       	brcs	.-20     	; 0xee <main+0x1a>
 102:	10 92 00 01 	sts	0x0100, r1
 106:	18 9a       	sbi	0x03, 0	; 3
 108:	f2 cf       	rjmp	.-28     	; 0xee <main+0x1a>

0000010a <_exit>:
 10a:	f8 94       	cli

0000010c <__stop_program>:
 10c:	ff cf       	rjmp	.-2      	; 0x10c <__stop_program>
