HW_DEVICE="atmega32u4"
hw_syshz="16000000"
PIN_LED="pin_pb0"
COUNTER="counter0"
CLKDIV="64"
COUNTMODE="up_loop"
PERIOD="0.5"

00000000 <__vectors>:
   0:	0c 94 56 00 	jmp	0xac	; 0xac <__ctors_end>
   4:	0c 94 68 00 	jmp	0xd0	; 0xd0 <__bad_interrupt>
   8:	0c 94 68 00 	jmp	0xd0	; 0xd0 <__bad_interrupt>
   c:	0c 94 68 00 	jmp	0xd0	; 0xd0 <__bad_interrupt>
  10:	0c 94 68 00 	jmp	0xd0	; 0xd0 <__bad_interrupt>
  14:	0c 94 68 00 	jmp	0xd0	; 0xd0 <__bad_interrupt>
  18:	0c 94 68 00 	jmp	0xd0	; 0xd0 <__bad_interrupt>
  1c:	0c 94 68 00 	jmp	0xd0	; 0xd0 <__bad_interrupt>
  20:	0c 94 68 00 	jmp	0xd0	; 0xd0 <__bad_interrupt>
  24:	0c 94 68 00 	jmp	0xd0	; 0xd0 <__bad_interrupt>
  28:	0c 94 68 00 	jmp	0xd0	; 0xd0 <__bad_interrupt>
  2c:	0c 94 68 00 	jmp	0xd0	; 0xd0 <__bad_interrupt>
  30:	0c 94 68 00 	jmp	0xd0	; 0xd0 <__bad_interrupt>
  34:	0c 94 68 00 	jmp	0xd0	; 0xd0 <__bad_interrupt>
  38:	0c 94 68 00 	jmp	0xd0	; 0xd0 <__bad_interrupt>
  3c:	0c 94 68 00 	jmp	0xd0	; 0xd0 <__bad_interrupt>
  40:	0c 94 68 00 	jmp	0xd0	; 0xd0 <__bad_interrupt>
  44:	0c 94 68 00 	jmp	0xd0	; 0xd0 <__bad_interrupt>
  48:	0c 94 68 00 	jmp	0xd0	; 0xd0 <__bad_interrupt>
  4c:	0c 94 68 00 	jmp	0xd0	; 0xd0 <__bad_interrupt>
  50:	0c 94 68 00 	jmp	0xd0	; 0xd0 <__bad_interrupt>
  54:	0c 94 68 00 	jmp	0xd0	; 0xd0 <__bad_interrupt>
  58:	0c 94 68 00 	jmp	0xd0	; 0xd0 <__bad_interrupt>
  5c:	0c 94 6a 00 	jmp	0xd4	; 0xd4 <__vector_23>
  60:	0c 94 68 00 	jmp	0xd0	; 0xd0 <__bad_interrupt>
  64:	0c 94 68 00 	jmp	0xd0	; 0xd0 <__bad_interrupt>
  68:	0c 94 68 00 	jmp	0xd0	; 0xd0 <__bad_interrupt>
  6c:	0c 94 68 00 	jmp	0xd0	; 0xd0 <__bad_interrupt>
  70:	0c 94 68 00 	jmp	0xd0	; 0xd0 <__bad_interrupt>
  74:	0c 94 68 00 	jmp	0xd0	; 0xd0 <__bad_interrupt>
  78:	0c 94 68 00 	jmp	0xd0	; 0xd0 <__bad_interrupt>
  7c:	0c 94 68 00 	jmp	0xd0	; 0xd0 <__bad_interrupt>
  80:	0c 94 68 00 	jmp	0xd0	; 0xd0 <__bad_interrupt>
  84:	0c 94 68 00 	jmp	0xd0	; 0xd0 <__bad_interrupt>
  88:	0c 94 68 00 	jmp	0xd0	; 0xd0 <__bad_interrupt>
  8c:	0c 94 68 00 	jmp	0xd0	; 0xd0 <__bad_interrupt>
  90:	0c 94 68 00 	jmp	0xd0	; 0xd0 <__bad_interrupt>
  94:	0c 94 68 00 	jmp	0xd0	; 0xd0 <__bad_interrupt>
  98:	0c 94 68 00 	jmp	0xd0	; 0xd0 <__bad_interrupt>
  9c:	0c 94 68 00 	jmp	0xd0	; 0xd0 <__bad_interrupt>
  a0:	0c 94 68 00 	jmp	0xd0	; 0xd0 <__bad_interrupt>
  a4:	0c 94 68 00 	jmp	0xd0	; 0xd0 <__bad_interrupt>
  a8:	0c 94 68 00 	jmp	0xd0	; 0xd0 <__bad_interrupt>

000000ac <__ctors_end>:
  ac:	11 24       	eor	r1, r1
  ae:	1f be       	out	0x3f, r1	; 63
  b0:	cf ef       	ldi	r28, 0xFF	; 255
  b2:	da e0       	ldi	r29, 0x0A	; 10
  b4:	de bf       	out	0x3e, r29	; 62
  b6:	cd bf       	out	0x3d, r28	; 61

000000b8 <__do_clear_bss>:
  b8:	11 e0       	ldi	r17, 0x01	; 1
  ba:	a0 e0       	ldi	r26, 0x00	; 0
  bc:	b1 e0       	ldi	r27, 0x01	; 1
  be:	01 c0       	rjmp	.+2      	; 0xc2 <.do_clear_bss_start>

000000c0 <.do_clear_bss_loop>:
  c0:	1d 92       	st	X+, r1

000000c2 <.do_clear_bss_start>:
  c2:	a1 30       	cpi	r26, 0x01	; 1
  c4:	b1 07       	cpc	r27, r17
  c6:	e1 f7       	brne	.-8      	; 0xc0 <.do_clear_bss_loop>
  c8:	0e 94 81 00 	call	0x102	; 0x102 <main>
  cc:	0c 94 8f 00 	jmp	0x11e	; 0x11e <_exit>

000000d0 <__bad_interrupt>:
  d0:	0c 94 00 00 	jmp	0	; 0x0 <__vectors>

000000d4 <__vector_23>:
  d4:	1f 92       	push	r1
  d6:	0f 92       	push	r0
  d8:	0f b6       	in	r0, 0x3f	; 63
  da:	0f 92       	push	r0
  dc:	11 24       	eor	r1, r1
  de:	8f 93       	push	r24
  e0:	80 91 00 01 	lds	r24, 0x0100
  e4:	8f 5f       	subi	r24, 0xFF	; 255
  e6:	89 3f       	cpi	r24, 0xF9	; 249
  e8:	18 f4       	brcc	.+6      	; 0xf0 <__vector_23+0x1c>
  ea:	80 93 00 01 	sts	0x0100, r24
  ee:	03 c0       	rjmp	.+6      	; 0xf6 <__vector_23+0x22>
  f0:	10 92 00 01 	sts	0x0100, r1
  f4:	18 9a       	sbi	0x03, 0	; 3
  f6:	8f 91       	pop	r24
  f8:	0f 90       	pop	r0
  fa:	0f be       	out	0x3f, r0	; 63
  fc:	0f 90       	pop	r0
  fe:	1f 90       	pop	r1
 100:	18 95       	reti

00000102 <main>:
 102:	81 e0       	ldi	r24, 0x01	; 1
 104:	83 bf       	out	0x33, r24	; 51
 106:	20 9a       	sbi	0x04, 0	; 4
 108:	93 e0       	ldi	r25, 0x03	; 3
 10a:	94 bd       	out	0x24, r25	; 36
 10c:	9b e0       	ldi	r25, 0x0B	; 11
 10e:	95 bd       	out	0x25, r25	; 37
 110:	80 93 6e 00 	sts	0x006E, r24
 114:	8a ef       	ldi	r24, 0xFA	; 250
 116:	87 bd       	out	0x27, r24	; 39
 118:	78 94       	sei
 11a:	88 95       	sleep
 11c:	fe cf       	rjmp	.-4      	; 0x11a <main+0x18>

0000011e <_exit>:
 11e:	f8 94       	cli

00000120 <__stop_program>:
 120:	ff cf       	rjmp	.-2      	; 0x120 <__stop_program>
