HW_DEVICE="attiny85"
hw_syshz="8000000"
PIN_LED="pb0"
COUNTER="counter0"
CLKDIV="64"
COUNTMODE="up_loop"
PERIOD="0.5"

00000000 <__vectors>:
   0:	0e c0       	rjmp	.+28     	; 0x1e <__ctors_end>
   2:	1d c0       	rjmp	.+58     	; 0x3e <__bad_interrupt>
   4:	1c c0       	rjmp	.+56     	; 0x3e <__bad_interrupt>
   6:	1b c0       	rjmp	.+54     	; 0x3e <__bad_interrupt>
   8:	1a c0       	rjmp	.+52     	; 0x3e <__bad_interrupt>
   a:	1a c0       	rjmp	.+52     	; 0x40 <__vector_5>
   c:	18 c0       	rjmp	.+48     	; 0x3e <__bad_interrupt>
   e:	17 c0       	rjmp	.+46     	; 0x3e <__bad_interrupt>
  10:	16 c0       	rjmp	.+44     	; 0x3e <__bad_interrupt>
  12:	15 c0       	rjmp	.+42     	; 0x3e <__bad_interrupt>
  14:	14 c0       	rjmp	.+40     	; 0x3e <__bad_interrupt>
  16:	13 c0       	rjmp	.+38     	; 0x3e <__bad_interrupt>
  18:	12 c0       	rjmp	.+36     	; 0x3e <__bad_interrupt>
  1a:	11 c0       	rjmp	.+34     	; 0x3e <__bad_interrupt>
  1c:	10 c0       	rjmp	.+32     	; 0x3e <__bad_interrupt>

0000001e <__ctors_end>:
  1e:	11 24       	eor	r1, r1
  20:	1f be       	out	0x3f, r1	; 63
  22:	cf e5       	ldi	r28, 0x5F	; 95
  24:	d2 e0       	ldi	r29, 0x02	; 2
  26:	de bf       	out	0x3e, r29	; 62
  28:	cd bf       	out	0x3d, r28	; 61

0000002a <__do_clear_bss>:
  2a:	10 e0       	ldi	r17, 0x00	; 0
  2c:	a0 e6       	ldi	r26, 0x60	; 96
  2e:	b0 e0       	ldi	r27, 0x00	; 0
  30:	01 c0       	rjmp	.+2      	; 0x34 <.do_clear_bss_start>

00000032 <.do_clear_bss_loop>:
  32:	1d 92       	st	X+, r1

00000034 <.do_clear_bss_start>:
  34:	a1 36       	cpi	r26, 0x61	; 97
  36:	b1 07       	cpc	r27, r17
  38:	e1 f7       	brne	.-8      	; 0x32 <.do_clear_bss_loop>
  3a:	19 d0       	rcall	.+50     	; 0x6e <main>
  3c:	26 c0       	rjmp	.+76     	; 0x8a <_exit>

0000003e <__bad_interrupt>:
  3e:	e0 cf       	rjmp	.-64     	; 0x0 <__vectors>

00000040 <__vector_5>:

/*  Service the counter overflow IRQ
 */
HW_ISR( COUNTER, overflow )
{
  40:	1f 92       	push	r1
  42:	0f 92       	push	r0
  44:	0f b6       	in	r0, 0x3f	; 63
  46:	0f 92       	push	r0
  48:	11 24       	eor	r1, r1
  4a:	8f 93       	push	r24
  static uint8_t n ;
  n++ ;
  4c:	80 91 60 00 	lds	r24, 0x0060
  50:	8f 5f       	subi	r24, 0xFF	; 255
  if ( n >= (uint8_t)(PERIOD / 2.0 / 0.001) ) {
  52:	89 3f       	cpi	r24, 0xF9	; 249
  54:	18 f4       	brcc	.+6      	; 0x5c <__vector_5+0x1c>
/*  Service the counter overflow IRQ
 */
HW_ISR( COUNTER, overflow )
{
  static uint8_t n ;
  n++ ;
  56:	80 93 60 00 	sts	0x0060, r24
  5a:	03 c0       	rjmp	.+6      	; 0x62 <__vector_5+0x22>
  if ( n >= (uint8_t)(PERIOD / 2.0 / 0.001) ) {
    n = 0 ;
  5c:	10 92 60 00 	sts	0x0060, r1
    /*
     *  Just 1 bit to be written at C address < 0x40 (ASM address < 0x20): use
     *  sbi/cbi
     */
    if ( v )
      *p |= wm ; /* sbi */
  60:	b0 9a       	sbi	0x16, 0	; 22
    hw_toggle( PIN_LED );
  }
}
  62:	8f 91       	pop	r24
  64:	0f 90       	pop	r0
  66:	0f be       	out	0x3f, r0	; 63
  68:	0f 90       	pop	r0
  6a:	1f 90       	pop	r1
  6c:	18 95       	reti

0000006e <main>:
     */
    r->ovalue = ((r->ovalue & ~wm) | (r->mvalue & wm)) & ~rfm ;

    /*  Write new value
     */
    *p = r->ovalue | (rfm & r->mmask & r->mvalue) ;
  6e:	80 e2       	ldi	r24, 0x20	; 32
  70:	85 bf       	out	0x35, r24	; 53
      /*
       *  Just 1 bit to be modified at C address < 0x40 (ASM address < 0x20): use
       *  instruction CBI or SBI
       */
      if ( wm & r->mvalue )
	*p |= wm ; /* sbi */
  72:	b8 9a       	sbi	0x17, 0	; 23
     */
    r->ovalue = ((r->ovalue & ~wm) | (r->mvalue & wm)) & ~rfm ;

    /*  Write new value
     */
    *p = r->ovalue | (rfm & r->mmask & r->mvalue) ;
  74:	8d e7       	ldi	r24, 0x7D	; 125
  76:	89 bd       	out	0x29, r24	; 41
  78:	83 e0       	ldi	r24, 0x03	; 3
  7a:	8a bd       	out	0x2a, r24	; 42
  7c:	8b e0       	ldi	r24, 0x0B	; 11
  7e:	83 bf       	out	0x33, r24	; 51
  80:	82 e0       	ldi	r24, 0x02	; 2
  82:	89 bf       	out	0x39, r24	; 57

  /*  Write this configuration into the hardware
   */
  hwa_commit();

  hw_enable_interrupts();
  84:	78 94       	sei

  for(;;)
    hw_sleep();
  86:	88 95       	sleep
  88:	fe cf       	rjmp	.-4      	; 0x86 <main+0x18>

0000008a <_exit>:
  8a:	f8 94       	cli

0000008c <__stop_program>:
  8c:	ff cf       	rjmp	.-2      	; 0x8c <__stop_program>
