HW_DEVICE="attiny84"
hw_syshz="8000000"
PIN_LED="pin_pa6"
COUNTER="counter0"
CLKDIV="64"
COUNTMODE="up_loop"
PERIOD="0.5"

00000000 <__vectors>:
   0:	10 c0       	rjmp	.+32     	; 0x22 <__ctors_end>
   2:	1f c0       	rjmp	.+62     	; 0x42 <__bad_interrupt>
   4:	1e c0       	rjmp	.+60     	; 0x42 <__bad_interrupt>
   6:	1d c0       	rjmp	.+58     	; 0x42 <__bad_interrupt>
   8:	1c c0       	rjmp	.+56     	; 0x42 <__bad_interrupt>
   a:	1b c0       	rjmp	.+54     	; 0x42 <__bad_interrupt>
   c:	1a c0       	rjmp	.+52     	; 0x42 <__bad_interrupt>
   e:	19 c0       	rjmp	.+50     	; 0x42 <__bad_interrupt>
  10:	18 c0       	rjmp	.+48     	; 0x42 <__bad_interrupt>
  12:	17 c0       	rjmp	.+46     	; 0x42 <__bad_interrupt>
  14:	16 c0       	rjmp	.+44     	; 0x42 <__bad_interrupt>
  16:	16 c0       	rjmp	.+44     	; 0x44 <__vector_11>
  18:	14 c0       	rjmp	.+40     	; 0x42 <__bad_interrupt>
  1a:	13 c0       	rjmp	.+38     	; 0x42 <__bad_interrupt>
  1c:	12 c0       	rjmp	.+36     	; 0x42 <__bad_interrupt>
  1e:	11 c0       	rjmp	.+34     	; 0x42 <__bad_interrupt>
  20:	10 c0       	rjmp	.+32     	; 0x42 <__bad_interrupt>

00000022 <__ctors_end>:
  22:	11 24       	eor	r1, r1
  24:	1f be       	out	0x3f, r1	; 63
  26:	cf e5       	ldi	r28, 0x5F	; 95
  28:	d2 e0       	ldi	r29, 0x02	; 2
  2a:	de bf       	out	0x3e, r29	; 62
  2c:	cd bf       	out	0x3d, r28	; 61

0000002e <__do_clear_bss>:
  2e:	20 e0       	ldi	r18, 0x00	; 0
  30:	a0 e6       	ldi	r26, 0x60	; 96
  32:	b0 e0       	ldi	r27, 0x00	; 0
  34:	01 c0       	rjmp	.+2      	; 0x38 <.do_clear_bss_start>

00000036 <.do_clear_bss_loop>:
  36:	1d 92       	st	X+, r1

00000038 <.do_clear_bss_start>:
  38:	a1 36       	cpi	r26, 0x61	; 97
  3a:	b2 07       	cpc	r27, r18
  3c:	e1 f7       	brne	.-8      	; 0x36 <.do_clear_bss_loop>
  3e:	19 d0       	rcall	.+50     	; 0x72 <main>
  40:	26 c0       	rjmp	.+76     	; 0x8e <_exit>

00000042 <__bad_interrupt>:
  42:	de cf       	rjmp	.-68     	; 0x0 <__vectors>

00000044 <__vector_11>:
  44:	1f 92       	push	r1
  46:	0f 92       	push	r0
  48:	0f b6       	in	r0, 0x3f	; 63
  4a:	0f 92       	push	r0
  4c:	11 24       	eor	r1, r1
  4e:	8f 93       	push	r24
  50:	80 91 60 00 	lds	r24, 0x0060
  54:	8f 5f       	subi	r24, 0xFF	; 255
  56:	89 3f       	cpi	r24, 0xF9	; 249
  58:	18 f4       	brcc	.+6      	; 0x60 <__vector_11+0x1c>
  5a:	80 93 60 00 	sts	0x0060, r24
  5e:	03 c0       	rjmp	.+6      	; 0x66 <__vector_11+0x22>
  60:	10 92 60 00 	sts	0x0060, r1
  64:	ce 9a       	sbi	0x19, 6	; 25
  66:	8f 91       	pop	r24
  68:	0f 90       	pop	r0
  6a:	0f be       	out	0x3f, r0	; 63
  6c:	0f 90       	pop	r0
  6e:	1f 90       	pop	r1
  70:	18 95       	reti

00000072 <main>:
  72:	80 e2       	ldi	r24, 0x20	; 32
  74:	85 bf       	out	0x35, r24	; 53
  76:	d6 9a       	sbi	0x1a, 6	; 26
  78:	83 e0       	ldi	r24, 0x03	; 3
  7a:	80 bf       	out	0x30, r24	; 48
  7c:	8b e0       	ldi	r24, 0x0B	; 11
  7e:	83 bf       	out	0x33, r24	; 51
  80:	81 e0       	ldi	r24, 0x01	; 1
  82:	89 bf       	out	0x39, r24	; 57
  84:	8d e7       	ldi	r24, 0x7D	; 125
  86:	86 bf       	out	0x36, r24	; 54
  88:	78 94       	sei
  8a:	88 95       	sleep
  8c:	fe cf       	rjmp	.-4      	; 0x8a <main+0x18>

0000008e <_exit>:
  8e:	f8 94       	cli

00000090 <__stop_program>:
  90:	ff cf       	rjmp	.-2      	; 0x90 <__stop_program>
