HW_DEVICE="atmega32u4"
HW_SYSHZ="16000000"
PIN_LED="pb0"
PERIOD="0.5"

00000000 <__vectors>:
   0:	0c 94 56 00 	jmp	0xac	; 0xac <__ctors_end>
   4:	0c 94 60 00 	jmp	0xc0	; 0xc0 <__bad_interrupt>
   8:	0c 94 60 00 	jmp	0xc0	; 0xc0 <__bad_interrupt>
   c:	0c 94 60 00 	jmp	0xc0	; 0xc0 <__bad_interrupt>
  10:	0c 94 60 00 	jmp	0xc0	; 0xc0 <__bad_interrupt>
  14:	0c 94 60 00 	jmp	0xc0	; 0xc0 <__bad_interrupt>
  18:	0c 94 60 00 	jmp	0xc0	; 0xc0 <__bad_interrupt>
  1c:	0c 94 60 00 	jmp	0xc0	; 0xc0 <__bad_interrupt>
  20:	0c 94 60 00 	jmp	0xc0	; 0xc0 <__bad_interrupt>
  24:	0c 94 60 00 	jmp	0xc0	; 0xc0 <__bad_interrupt>
  28:	0c 94 60 00 	jmp	0xc0	; 0xc0 <__bad_interrupt>
  2c:	0c 94 60 00 	jmp	0xc0	; 0xc0 <__bad_interrupt>
  30:	0c 94 60 00 	jmp	0xc0	; 0xc0 <__bad_interrupt>
  34:	0c 94 60 00 	jmp	0xc0	; 0xc0 <__bad_interrupt>
  38:	0c 94 60 00 	jmp	0xc0	; 0xc0 <__bad_interrupt>
  3c:	0c 94 60 00 	jmp	0xc0	; 0xc0 <__bad_interrupt>
  40:	0c 94 60 00 	jmp	0xc0	; 0xc0 <__bad_interrupt>
  44:	0c 94 60 00 	jmp	0xc0	; 0xc0 <__bad_interrupt>
  48:	0c 94 60 00 	jmp	0xc0	; 0xc0 <__bad_interrupt>
  4c:	0c 94 60 00 	jmp	0xc0	; 0xc0 <__bad_interrupt>
  50:	0c 94 60 00 	jmp	0xc0	; 0xc0 <__bad_interrupt>
  54:	0c 94 60 00 	jmp	0xc0	; 0xc0 <__bad_interrupt>
  58:	0c 94 60 00 	jmp	0xc0	; 0xc0 <__bad_interrupt>
  5c:	0c 94 60 00 	jmp	0xc0	; 0xc0 <__bad_interrupt>
  60:	0c 94 60 00 	jmp	0xc0	; 0xc0 <__bad_interrupt>
  64:	0c 94 60 00 	jmp	0xc0	; 0xc0 <__bad_interrupt>
  68:	0c 94 60 00 	jmp	0xc0	; 0xc0 <__bad_interrupt>
  6c:	0c 94 60 00 	jmp	0xc0	; 0xc0 <__bad_interrupt>
  70:	0c 94 60 00 	jmp	0xc0	; 0xc0 <__bad_interrupt>
  74:	0c 94 60 00 	jmp	0xc0	; 0xc0 <__bad_interrupt>
  78:	0c 94 60 00 	jmp	0xc0	; 0xc0 <__bad_interrupt>
  7c:	0c 94 60 00 	jmp	0xc0	; 0xc0 <__bad_interrupt>
  80:	0c 94 60 00 	jmp	0xc0	; 0xc0 <__bad_interrupt>
  84:	0c 94 60 00 	jmp	0xc0	; 0xc0 <__bad_interrupt>
  88:	0c 94 60 00 	jmp	0xc0	; 0xc0 <__bad_interrupt>
  8c:	0c 94 60 00 	jmp	0xc0	; 0xc0 <__bad_interrupt>
  90:	0c 94 60 00 	jmp	0xc0	; 0xc0 <__bad_interrupt>
  94:	0c 94 60 00 	jmp	0xc0	; 0xc0 <__bad_interrupt>
  98:	0c 94 60 00 	jmp	0xc0	; 0xc0 <__bad_interrupt>
  9c:	0c 94 60 00 	jmp	0xc0	; 0xc0 <__bad_interrupt>
  a0:	0c 94 60 00 	jmp	0xc0	; 0xc0 <__bad_interrupt>
  a4:	0c 94 60 00 	jmp	0xc0	; 0xc0 <__bad_interrupt>
  a8:	0c 94 60 00 	jmp	0xc0	; 0xc0 <__bad_interrupt>

000000ac <__ctors_end>:
  ac:	11 24       	eor	r1, r1
  ae:	1f be       	out	0x3f, r1	; 63
  b0:	cf ef       	ldi	r28, 0xFF	; 255
  b2:	da e0       	ldi	r29, 0x0A	; 10
  b4:	de bf       	out	0x3e, r29	; 62
  b6:	cd bf       	out	0x3d, r28	; 61
  b8:	0e 94 62 00 	call	0xc4	; 0xc4 <main>
  bc:	0c 94 6e 00 	jmp	0xdc	; 0xdc <_exit>

000000c0 <__bad_interrupt>:
  c0:	0c 94 00 00 	jmp	0	; 0x0 <__vectors>

000000c4 <main>:
  c4:	20 9a       	sbi	0x04, 0	; 4
  c6:	18 9a       	sbi	0x03, 0	; 3
  c8:	2f ef       	ldi	r18, 0xFF	; 255
  ca:	84 e3       	ldi	r24, 0x34	; 52
  cc:	9c e0       	ldi	r25, 0x0C	; 12
  ce:	21 50       	subi	r18, 0x01	; 1
  d0:	80 40       	sbci	r24, 0x00	; 0
  d2:	90 40       	sbci	r25, 0x00	; 0
  d4:	e1 f7       	brne	.-8      	; 0xce <main+0xa>
  d6:	00 c0       	rjmp	.+0      	; 0xd8 <main+0x14>
  d8:	00 00       	nop
  da:	f5 cf       	rjmp	.-22     	; 0xc6 <main+0x2>

000000dc <_exit>:
  dc:	f8 94       	cli

000000de <__stop_program>:
  de:	ff cf       	rjmp	.-2      	; 0xde <__stop_program>
