(dp0
S'884b59'
p1
I1
sS'774e66'
p2
I1
sS'825670'
p3
I2
sS'825671'
p4
I1
sS'825672'
p5
I1
sS'7f4f68'
p6
I2
sS'825772'
p7
I1
sS'884d60'
p8
I1
sS'985061'
p9
I1
sS'884f64'
p10
I2
sS'884f65'
p11
I1
sS'884f62'
p12
I1
sS'7d536d'
p13
I1
sS'8b4f62'
p14
I2
sS'7d536f'
p15
I1
sS'744f69'
p16
I2
sS'6f4e6c'
p17
I1
sS'704f6b'
p18
I5
sS'75516f'
p19
I2
sS'75516d'
p20
I1
sS'925669'
p21
I1
sS'935467'
p22
I1
sS'885779'
p23
I1
sS'7c5672'
p24
I1
sS'7c5673'
p25
I1
sS'83556d'
p26
I2
sS'7e4f67'
p27
I9
sS'8b4f63'
p28
I2
sS'954f62'
p29
I1
sS'83536d'
p30
I1
sS'96617a'
p31
I1
sS'83536b'
p32
I2
sS'744f6c'
p33
I2
sS'744f6b'
p34
I3
sS'744f6a'
p35
I2
sS'74506d'
p36
I1
sS'79526f'
p37
I1
sS'8a5369'
p38
I1
sS'8f4f62'
p39
I1
sS'795068'
p40
I2
sS'89536a'
p41
I1
sS'804e67'
p42
I2
sS'915063'
p43
I1
sS'82506b'
p44
I1
sS'985266'
p45
I1
sS'7d5472'
p46
I1
sS'7e516b'
p47
I1
sS'985062'
p48
I1
sS'904d5e'
p49
I1
sS'794e6a'
p50
I1
sS'7f4e66'
p51
I5
sS'855068'
p52
I1
sS'7b5067'
p53
I1
sS'935063'
p54
I1
sS'7c4b5e'
p55
I1
sS'7b5069'
p56
I2
sS'774c5f'
p57
I1
sS'8b5a73'
p58
I1
sS'8b5a72'
p59
I1
sS'7f4e65'
p60
I3
sS'754f6d'
p61
I1
sS'8a4e61'
p62
I1
sS'754f6b'
p63
I2
sS'754f6c'
p64
I3
sS'834e68'
p65
I1
sS'725270'
p66
I1
sS'7a526b'
p67
I2
sS'7a526d'
p68
I2
sS'8c4e64'
p69
I1
sS'754d67'
p70
I3
sS'8c4e63'
p71
I1
sS'875670'
p72
I1
sS'7a546e'
p73
I1
sS'7b526e'
p74
I2
sS'7b526b'
p75
I1
sS'7b526c'
p76
I2
sS'7c4e69'
p77
I2
sS'754f69'
p78
I3
sS'754f67'
p79
I1
sS'845069'
p80
I1
sS'7b506d'
p81
I1
sS'7b506a'
p82
I1
sS'7b506b'
p83
I2
sS'7b506c'
p84
I1
sS'78526a'
p85
I2
sS'8a5065'
p86
I1
sS'78526e'
p87
I1
sS'885870'
p88
I1
sS'7e546f'
p89
I5
sS'7e546e'
p90
I1
sS'7e546d'
p91
I1
sS'834e66'
p92
I4
sS'734f6a'
p93
I2
sS'734f6b'
p94
I5
sS'734f6c'
p95
I3
sS'734f6d'
p96
I2
sS'734f6e'
p97
I2
sS'884f63'
p98
I1
sS'724f6e'
p99
I3
sS'724f6d'
p100
I3
sS'94526b'
p101
I1
sS'8c5065'
p102
I1
sS'764e66'
p103
I1
sS'925566'
p104
I1
sS'864f62'
p105
I1
sS'864f63'
p106
I1
sS'7a4f66'
p107
I1
sS'7a4f67'
p108
I3
sS'864f68'
p109
I1
sS'724f6a'
p110
I1
sS'7a4f68'
p111
I5
sS'7a4f69'
p112
I4
sS'764e68'
p113
I3
sS'764e69'
p114
I2
sS'7e526d'
p115
I2
sS'975164'
p116
I1
sS'7e526a'
p117
I2
sS'7e526c'
p118
I3
sS'7e526b'
p119
I3
sS'77516d'
p120
I3
sS'77516e'
p121
I2
sS'82526d'
p122
I1
sS'6d4f6e'
p123
I1
sS'77516c'
p124
I1
sS'7a4e65'
p125
I1
sS'814d63'
p126
I1
sS'7a4e66'
p127
I1
sS'7a4e63'
p128
I1
sS'80536c'
p129
I2
sS'7b536f'
p130
I2
sS'7b536e'
p131
I1
sS'875168'
p132
I1
sS'6a4e6e'
p133
I1
sS'805069'
p134
I1
sS'805067'
p135
I2
sS'805066'
p136
I1
sS'805065'
p137
I2
sS'8b5066'
p138
I1
sS'865670'
p139
I2
sS'8e4e61'
p140
I1
sS'714e6c'
p141
I1
sS'7a4f6b'
p142
I1
sS'764e6d'
p143
I1
sS'7a4f6a'
p144
I5
sS'764e6b'
p145
I2
sS'764e6c'
p146
I2
sS'925367'
p147
I1
sS'764e6a'
p148
I1
sS'724c69'
p149
I1
sS'8b4e63'
p150
I1
sS'764d69'
p151
I1
sS'764d68'
p152
I2
sS'864e63'
p153
I4
sS'864e62'
p154
I1
sS'835875'
p155
I1
sS'864e60'
p156
I1
sS'7c536f'
p157
I1
sS'945568'
p158
I1
sS'7c536d'
p159
I1
sS'7c536e'
p160
I2
sS'924f60'
p161
I1
sS'8a4c5b'
p162
I1
sS'7e4f6a'
p163
I1
sS'794d64'
p164
I1
sS'944d5c'
p165
I1
sS'855670'
p166
I1
sS'7f5670'
p167
I1
sS'7f5673'
p168
I1
sS'81506b'
p169
I1
sS'7f5570'
p170
I1
sS'764e67'
p171
I3
sS'81546c'
p172
I1
sS'834d60'
p173
I1
sS'81546d'
p174
I1
sS'81546e'
p175
I3
sS'855772'
p176
I1
sS'905363'
p177
I1
sS'7a5069'
p178
I1
sS'815068'
p179
I2
sS'815069'
p180
I1
sS'815067'
p181
I1
sS'815065'
p182
I1
sS'734e6c'
p183
I1
sS'734e6a'
p184
I3
sS'795776'
p185
I1
sS'7e5670'
p186
I1
sS'7e5677'
p187
I1
sS'774e6b'
p188
I3
sS'875066'
p189
I1
sS'795779'
p190
I1
sS'77546d'
p191
I1
sS'845473'
p192
I1
sS'845570'
p193
I1
sS'795672'
p194
I1
sS'7e5570'
p195
I1
sS'77526c'
p196
I1
sS'905c79'
p197
I1
sS'77526f'
p198
I1
sS'77526e'
p199
I3
sS'7d556f'
p200
I1
sS'7d556e'
p201
I1
sS'7f4f65'
p202
I1
sS'7f4f67'
p203
I6
sS'7f4f66'
p204
I3
sS'904e63'
p205
I1
sS'895067'
p206
I1
sS'82566e'
p207
I1
sS'8c4d5f'
p208
I1
sS'87546a'
p209
I1
sS'905062'
p210
I1
sS'8d5367'
p211
I1
sS'7d5673'
p212
I1
sS'7a5673'
p213
I1
sS'8f5467'
p214
I1
sS'724d6d'
p215
I1
sS'81516c'
p216
I1
sS'81516b'
p217
I4
sS'81516a'
p218
I2
sS'765375'
p219
I1
sS'765270'
p220
I1
sS'79506b'
p221
I2
sS'7d5775'
p222
I1
sS'765274'
p223
I1
sS'755272'
p224
I1
sS'7e4c61'
p225
I1
sS'6f4f6c'
p226
I1
sS'6f4f6d'
p227
I3
sS'815264'
p228
I1
sS'97556c'
p229
I1
sS'78516e'
p230
I1
sS'78516d'
p231
I1
sS'78516c'
p232
I1
sS'854d61'
p233
I2
sS'714d66'
p234
I1
sS'724d69'
p235
I1
sS'724d66'
p236
I1
sS'724d65'
p237
I2
sS'82556f'
p238
I8
sS'7a4b5d'
p239
I1
sS'7a506d'
p240
I1
sS'7c4e68'
p241
I1
sS'835868'
p242
I1
sS'735272'
p243
I1
sS'795273'
p244
I1
sS'81526d'
p245
I1
sS'8b5267'
p246
I1
sS'81526a'
p247
I1
sS'81526b'
p248
I1
sS'865770'
p249
I1
sS'8d516d'
p250
I1
sS'815167'
p251
I1
sS'8d4e62'
p252
I2
sS'8f5a73'
p253
I1
sS'8d4f60'
p254
I1
sS'7a4c54'
p255
I1
sS'744e6a'
p256
I2
sS'8d5063'
p257
I1
sS'854e62'
p258
I1
sS'8d5065'
p259
I1
sS'79526d'
p260
I1
sS'8b4d5f'
p261
I1
sS'714f6a'
p262
I2
sS'704d69'
p263
I1
sS'7c4d64'
p264
I1
sS'7c5067'
p265
I2
sS'744f6d'
p266
I4
sS'924d5c'
p267
I1
sS'765069'
p268
I2
sS'854e66'
p269
I1
sS'934e5e'
p270
I1
sS'84526a'
p271
I1
sS'84526b'
p272
I1
sS'a05468'
p273
I1
sS'825064'
p274
I1
sS'825067'
p275
I3
sS'825066'
p276
I2
sS'804e68'
p277
I1
sS'8e4e5f'
p278
I1
sS'804e65'
p279
I4
sS'804e64'
p280
I2
sS'73516f'
p281
I1
sS'804e66'
p282
I5
sS'7c4f68'
p283
I6
sS'734e6d'
p284
I2
sS'8f4e64'
p285
I1
sS'905569'
p286
I1
sS'7c506a'
p287
I2
sS'704d6c'
p288
I1
sS'7c506b'
p289
I1
sS'7d4e65'
p290
I1
sS'7b4e68'
p291
I5
sS'795473'
p292
I1
sS'9c5164'
p293
I1
sS'785271'
p294
I1
sS'874e62'
p295
I1
sS'974f62'
p296
I1
sS'7b4e66'
p297
I2
sS'7b4e67'
p298
I2
sS'8e5064'
p299
I1
sS'7b4e65'
p300
I1
sS'905467'
p301
I1
sS'845269'
p302
I1
sS'905366'
p303
I1
sS'905365'
p304
I1
sS'855066'
p305
I1
sS'724f6b'
p306
I5
sS'874e63'
p307
I3
sS'82506a'
p308
I1
sS'76506a'
p309
I5
sS'76506b'
p310
I1
sS'76506c'
p311
I2
sS'76506d'
p312
I1
sS'914f61'
p313
I1
sS'76506f'
p314
I1
sS'845266'
p315
I1
sS'7e5170'
p316
I1
sS'784d67'
p317
I2
sS'784d66'
p318
I1
sS'855067'
p319
I1
sS'8f526d'
p320
I1
sS'8e5b73'
p321
I1
sS'8e5468'
p322
I1
sS'7b4c62'
p323
I1
sS'7d4f6c'
p324
I1
sS'894d60'
p325
I1
sS'7d4f6a'
p326
I1
sS'8e5467'
p327
I3
sS'7e4e65'
p328
I1
sS'7e4e64'
p329
I1
sS'7e4e66'
p330
I3
sS'8b5971'
p331
I1
sS'8b5970'
p332
I1
sS'89566f'
p333
I1
sS'835670'
p334
I2
sS'80546e'
p335
I5
sS'85526a'
p336
I1
sS'805875'
p337
I1
sS'9b5061'
p338
I2
sS'8f5265'
p339
I1
sS'885a75'
p340
I1
sS'86536d'
p341
I1
sS'714d6a'
p342
I1
sS'7d4f67'
p343
I3
sS'7d4f66'
p344
I2
sS'91627c'
p345
I1
sS'824d61'
p346
I1
sS'7f5068'
p347
I2
sS'7f5069'
p348
I5
sS'935c73'
p349
I1
sS'86556e'
p350
I1
sS'704e6f'
p351
I1
sS'72516d'
p352
I1
sS'7f5066'
p353
I1
sS'7f5067'
p354
I1
sS'855268'
p355
I1
sS'88556c'
p356
I2
sS'885267'
p357
I1
sS'915265'
p358
I1
sS'875167'
p359
I1
sS'88576e'
p360
I1
sS'88576f'
p361
I1
sS'885269'
p362
I1
sS'895369'
p363
I1
sS'824c60'
p364
I1
sS'8b4e62'
p365
I1
sS'744d6a'
p366
I1
sS'7e5571'
p367
I1
sS'7d4f69'
p368
I2
sS'73506e'
p369
I2
sS'8a4f63'
p370
I2
sS'8a4f62'
p371
I1
sS'7b4f69'
p372
I3
sS'7b4f68'
p373
I6
sS'8a4f64'
p374
I1
sS'8e5365'
p375
I2
sS'7b4f67'
p376
I1
sS'8e5366'
p377
I2
sS'7f4f69'
p378
I2
sS'7d506a'
p379
I3
sS'73506d'
p380
I5
sS'804d5f'
p381
I1
sS'7d526e'
p382
I1
sS'824f68'
p383
I2
sS'844f64'
p384
I1
sS'7d526b'
p385
I2
sS'7d526c'
p386
I3
sS'824f65'
p387
I1
sS'835268'
p388
I1
sS'835269'
p389
I1
sS'7f556e'
p390
I1
sS'7f556f'
p391
I3
sS'844a5b'
p392
I1
sS'83566f'
p393
I1
sS'7f536e'
p394
I1
sS'7f536d'
p395
I2
sS'7f536c'
p396
I1
sS'7b4f6b'
p397
I2
sS'714b66'
p398
I1
sS'835167'
p399
I1
sS'855069'
p400
I1
sS'915a6f'
p401
I1
sS'834f68'
p402
I2
sS'83546d'
p403
I2
sS'83546f'
p404
I1
sS'835169'
p405
I2
sS'835168'
p406
I1
sS'83546b'
p407
I3
sS'83546c'
p408
I1
sS'79516f'
p409
I1
sS'83526c'
p410
I1
sS'79516e'
p411
I1
sS'79516b'
p412
I2
sS'79516c'
p413
I1
sS'79516a'
p414
I1
sS'89556c'
p415
I2
sS'784e66'
p416
I1
sS'824e63'
p417
I1
sS'7d5067'
p418
I1
sS'824e66'
p419
I11
sS'86566e'
p420
I1
sS'824e64'
p421
I1
sS'7d5068'
p422
I1
sS'7d5069'
p423
I1
sS'8e4d5d'
p424
I1
sS'7d516c'
p425
I1
sS'8b4f65'
p426
I2
sS'7d516a'
p427
I2
sS'95566c'
p428
I1
sS'924e62'
p429
I1
sS'7d516d'
p430
I2
sS'74506f'
p431
I1
sS'7a506b'
p432
I3
sS'7a506a'
p433
I2
sS'74506e'
p434
I3
sS'74506c'
p435
I4
sS'7a506e'
p436
I2
sS'7a5169'
p437
I1
sS'7a5167'
p438
I1
sS'935064'
p439
I1
sS'795067'
p440
I3
sS'8b4d61'
p441
I1
sS'845469'
p442
I1
sS'7b5671'
p443
I1
sS'904f63'
p444
I1
sS'6b4e6b'
p445
I1
sS'8d5870'
p446
I1
sS'6b4e6d'
p447
I1
sS'794c62'
p448
I1
sS'815572'
p449
I1
sS'93566b'
p450
I1
sS'7c526d'
p451
I1
sS'784f67'
p452
I1
sS'8b4e61'
p453
I2
sS'704f6d'
p454
I7
sS'7a5067'
p455
I1
sS'9d576b'
p456
I1
sS'7e566f'
p457
I2
sS'79506c'
p458
I3
sS'704f6c'
p459
I11
sS'79506a'
p460
I1
sS'7a516e'
p461
I1
sS'7a516b'
p462
I3
sS'7d5572'
p463
I1
sS'7a516a'
p464
I1
sS'7d5168'
p465
I1
sS'7b4f6a'
p466
I1
sS'7a536f'
p467
I2
sS'775271'
p468
I1
sS'805674'
p469
I1
sS'8d5365'
p470
I1
sS'8d4f62'
p471
I1
sS'8d4f63'
p472
I1
sS'7c5470'
p473
I6
sS'7c5471'
p474
I1
sS'7c4d66'
p475
I1
sS'8d4f64'
p476
I1
sS'7c4d65'
p477
I1
sS'805672'
p478
I1
sS'905064'
p479
I1
sS'84546e'
p480
I1
sS'8d5269'
p481
I1
sS'84546c'
p482
I1
sS'905065'
p483
I1
sS'89546a'
p484
I1
sS'7b4d61'
p485
I2
sS'80516b'
p486
I2
sS'80516c'
p487
I2
sS'80516a'
p488
I2
sS'925062'
p489
I1
sS'894e63'
p490
I1
sS'824b5e'
p491
I1
sS'884e60'
p492
I2
sS'884e63'
p493
I2
sS'845774'
p494
I1
sS'845772'
p495
I1
sS'845771'
p496
I1
sS'7a4d64'
p497
I1
sS'6d4c67'
p498
I1
sS'844f66'
p499
I1
sS'755069'
p500
I1
sS'844f65'
p501
I2
sS'985164'
p502
I1
sS'92526a'
p503
I1
sS'845670'
p504
I1
sS'7e536b'
p505
I1
sS'7e536c'
p506
I1
sS'7e536d'
p507
I1
sS'7e536e'
p508
I2
sS'7e536f'
p509
I1
sS'75506f'
p510
I1
sS'75506e'
p511
I4
sS'75506d'
p512
I5
sS'75506c'
p513
I4
sS'75506b'
p514
I2
sS'75506a'
p515
I3
sS'765371'
p516
I1
sS'814e64'
p517
I2
sS'814e65'
p518
I8
sS'814e66'
p519
I15
sS'814e62'
p520
I1
sS'814e63'
p521
I1
sS'894f63'
p522
I1
sS'805169'
p523
I1
sS'7c4f6a'
p524
I1
sS'6c4f6f'
p525
I1
sS'6c4f6e'
p526
I1
sS'6c4f6d'
p527
I2
sS'8a566d'
p528
I1
sS'8a566e'
p529
I1
sS'8d4c5a'
p530
I1
sS'84516a'
p531
I1
sS'834f69'
p532
I1
sS'814c62'
p533
I1
sS'915167'
p534
I1
sS'804f67'
p535
I13
sS'925264'
p536
I1
sS'894f64'
p537
I4
sS'754e6a'
p538
I1
sS'754e6c'
p539
I2
sS'754e6b'
p540
I1
sS'814f67'
p541
I13
sS'754e6d'
p542
I1
sS'814f64'
p543
I2
sS'794f6b'
p544
I3
sS'794f6a'
p545
I4
sS'794f6d'
p546
I3
sS'734d68'
p547
I1
sS'7e506b'
p548
I2
sS'915669'
p549
I1
sS'764c64'
p550
I1
sS'734d65'
p551
I1
sS'804f66'
p552
I4
sS'9e5162'
p553
I1
sS'855169'
p554
I1
sS'855168'
p555
I1
sS'945163'
p556
I1
sS'7b5169'
p557
I4
sS'804f65'
p558
I4
sS'774f67'
p559
I3
sS'8e5065'
p560
I1
sS'71506c'
p561
I1
sS'8c4f63'
p562
I3
sS'71506f'
p563
I3
sS'71506e'
p564
I4
sS'7a546f'
p565
I2
sS'734d6b'
p566
I1
sS'734d6a'
p567
I1
sS'7b526d'
p568
I1
sS'91566a'
p569
I1
sS'7e5068'
p570
I1
sS'794f68'
p571
I1
sS'794f69'
p572
I3
sS'734b63'
p573
I1
sS'754e69'
p574
I1
sS'7f516b'
p575
I1
sS'794f66'
p576
I3
sS'794f67'
p577
I4
sS'844e63'
p578
I2
sS'844e62'
p579
I1
sS'885670'
p580
I1
sS'754f68'
p581
I1
sS'7b516a'
p582
I3
sS'885771'
p583
I1
sS'7b516b'
p584
I3
sS'7b516e'
p585
I1
sS'7b516d'
p586
I1
sS'774f69'
p587
I5
sS'80556f'
p588
I8
sS'7f4e67'
p589
I3
sS'7f4e64'
p590
I2
sS'80556e'
p591
I3
sS'934f60'
p592
I1
sS'78536e'
p593
I1
sS'78536f'
p594
I1
sS'7d546f'
p595
I3
sS'7d546e'
p596
I1
sS'9d4e5d'
p597
I1
sS'884d5e'
p598
I1
sS'884c5c'
p599
I1
sS'a1586a'
p600
I1
sS'7f5775'
p601
I1
sS'7f5368'
p602
I1
sS'8e4e60'
p603
I1
sS'7b4f65'
p604
I3
sS'8e4e62'
p605
I1
sS'8e4e63'
p606
I1
sS'724e6c'
p607
I2
sS'724e6a'
p608
I1
sS'724e6d'
p609
I1
sS'724e6e'
p610
I1
sS'764f69'
p611
I3
sS'764f68'
p612
I5
sS'7b4f66'
p613
I2
sS'715170'
p614
I1
sS'764f67'
p615
I1
sS'77506a'
p616
I2
sS'77506c'
p617
I3
sS'77506b'
p618
I4
sS'77506e'
p619
I1
sS'77506d'
p620
I2
sS'704e6a'
p621
I1
sS'78506b'
p622
I2
sS'78506c'
p623
I2
sS'78506a'
p624
I2
sS'865771'
p625
I1
sS'905466'
p626
I1
sS'914d60'
p627
I1
sS'714f6b'
p628
I7
sS'714f6c'
p629
I3
sS'724e68'
p630
I1
sS'7c516c'
p631
I1
sS'8b4b5a'
p632
I1
sS'714f6d'
p633
I3
sS'714f6e'
p634
I4
sS'7c516d'
p635
I1
sS'80526a'
p636
I2
sS'724e67'
p637
I1
sS'80526c'
p638
I1
sS'80526b'
p639
I2
sS'894e61'
p640
I1
sS'70506f'
p641
I1
sS'81566e'
p642
I3
sS'81566f'
p643
I2
sS'70506e'
p644
I2
sS'80546c'
p645
I1
sS'835671'
p646
I2
sS'80546f'
p647
I1
sS'835673'
p648
I1
sS'785069'
p649
I2
sS'775069'
p650
I4
sS'894e62'
p651
I2
sS'834f65'
p652
I1
sS'834f67'
p653
I8
sS'834f66'
p654
I5
sS'764f6a'
p655
I4
sS'935b6d'
p656
I1
sS'764f6c'
p657
I2
sS'764f6e'
p658
I2
sS'764f6d'
p659
I5
sS'814f63'
p660
I1
sS'6b4f6e'
p661
I1
sS'864f64'
p662
I2
sS'6f4d69'
p663
I2
sS'704f6e'
p664
I3
sS'794c60'
p665
I1
sS'7c526c'
p666
I5
sS'7c526b'
p667
I2
sS'7c5169'
p668
I2
sS'794e69'
p669
I1
sS'794e68'
p670
I1
sS'885d84'
p671
I1
sS'794e67'
p672
I1
sS'794e66'
p673
I1
sS'825168'
p674
I1
sS'814f66'
p675
I9
sS'804d64'
p676
I1
sS'904e5f'
p677
I1
sS'904e5d'
p678
I1
sS'8d586f'
p679
I1
sS'8c576d'
p680
I1
sS'814c61'
p681
I1
sS'955567'
p682
I1
sS'965265'
p683
I1
sS'84536d'
p684
I2
sS'81556f'
p685
I8
sS'81556e'
p686
I9
sS'81556d'
p687
I1
sS'945164'
p688
I1
sS'975569'
p689
I1
sS'84536c'
p690
I1
sS'7d5370'
p691
I1
sS'7d5371'
p692
I1
sS'774f68'
p693
I3
sS'834e64'
p694
I4
sS'82516e'
p695
I1
sS'82516a'
p696
I1
sS'82516c'
p697
I2
sS'7c516a'
p698
I7
sS'7c516b'
p699
I2
sS'7a5370'
p700
I1
sS'8c586d'
p701
I1
sS'854e63'
p702
I1
sS'834e63'
p703
I1
sS'874f65'
p704
I1
sS'874f64'
p705
I1
sS'874f67'
p706
I1
sS'8f5c72'
p707
I1
sS'90556b'
p708
I1
sS'824f66'
p709
I7
sS'774f6d'
p710
I1
sS'714e6d'
p711
I1
sS'7f556b'
p712
I1
sS'714e6a'
p713
I1
sS'774f6a'
p714
I3
sS'774f6b'
p715
I1
sS'714e6b'
p716
I3
sS'774f6c'
p717
I3
sS'845369'
p718
I3
sS'7a5571'
p719
I1
sS'845164'
p720
I1
sS'954f5f'
p721
I1
sS'82536b'
p722
I3
sS'82536c'
p723
I3
sS'755270'
p724
I1
sS'82536a'
p725
I1
sS'845168'
p726
I1
sS'825269'
p727
I1
sS'724f69'
p728
I1
sS'7e506a'
p729
I3
sS'875268'
p730
I1
sS'875269'
p731
I1
sS'875266'
p732
I1
sS'745373'
p733
I1
sS'9d5061'
p734
I1
sS'825267'
p735
I1
sS'72506d'
p736
I7
sS'72506e'
p737
I1
sS'774e69'
p738
I3
sS'774e68'
p739
I1
sS'88536d'
p740
I1
sS'72506a'
p741
I1
sS'72506b'
p742
I1
sS'8f5d75'
p743
I1
sS'7e4d64'
p744
I4
sS'945166'
p745
I2
sS'774e67'
p746
I2
sS'82536d'
p747
I3
sS'8e4f64'
p748
I1
sS'7e4f68'
p749
I1
sS'7e4f69'
p750
I1
sS'7e4f66'
p751
I1
sS'955061'
p752
I1
sS'7e4f65'
p753
I2
sS'7e4f62'
p754
I1
sS'83566e'
p755
I1
sS'8f5366'
p756
I1
sS'905264'
p757
I1
sS'8f5365'
p758
I1
sS'82546d'
p759
I1
sS'8e4f60'
p760
I1
sS'824f67'
p761
I11
sS'784e6a'
p762
I2
sS'784e6b'
p763
I2
sS'784e6c'
p764
I1
sS'7b5473'
p765
I1
sS'815671'
p766
I1
sS'7b5470'
p767
I4
sS'82526c'
p768
I1
sS'82526b'
p769
I3
sS'7b5370'
p770
I2
sS'845066'
p771
I1
sS'724f6c'
p772
I10
sS'87526a'
p773
I2
sS'81536c'
p774
I2
sS'81536b'
p775
I1
sS'81536e'
p776
I1
sS'81536d'
p777
I3
sS'744d68'
p778
I1
sS'7e4f6b'
p779
I1
sS'7b5571'
p780
I2
sS'8a5777'
p781
I1
sS'87566f'
p782
I1
sS'8a5771'
p783
I1
sS'885369'
p784
I1
sS'774e6a'
p785
I3
sS'7c546f'
p786
I2
sS'9a5164'
p787
I1
sS'7f546e'
p788
I1
sS'7f546f'
p789
I5
sS'7f546a'
p790
I1
sS'7e5474'
p791
I1
sS'874d5f'
p792
I1
sS'7f5268'
p793
I1
sS'7e5470'
p794
I1
sS'7e5471'
p795
I1
sS'744e6b'
p796
I5
sS'744e6c'
p797
I2
sS'784e65'
p798
I1
sS'795470'
p799
I2
sS'7c4f69'
p800
I9
sS'774b62'
p801
I1
sS'85546c'
p802
I2
sS'89526c'
p803
I1
sS'795572'
p804
I1
sS'7c4f64'
p805
I1
sS'7c4f65'
p806
I3
sS'7c4f66'
p807
I4
sS'7c4f67'
p808
I2
sS'7f566f'
p809
I2
sS'784e68'
p810
I1
sS'8d5d7b'
p811
I1
sS'784f6d'
p812
I1
sS'784f6c'
p813
I4
sS'784f6b'
p814
I1
sS'865167'
p815
I2
sS'865168'
p816
I1
sS'975162'
p817
I1
sS'744d66'
p818
I1
sS'73506a'
p819
I1
sS'73506c'
p820
I3
sS'73506b'
p821
I1
sS'744e65'
p822
I1
sS'744e66'
p823
I1
sS'745371'
p824
I1
sS'7f526b'
p825
I2
sS'7f526c'
p826
I2
sS'7f526a'
p827
I3
sS'904e62'
p828
I1
sS'744e69'
p829
I2
sS'805772'
p830
I1
sS'885065'
p831
I1
sS'885063'
p832
I1
sS'835065'
p833
I1
sS'835067'
p834
I1
sS'835068'
p835
I1
sS'835069'
p836
I1
sS'7b4d65'
p837
I1
sS'7b4d64'
p838
I1
sS'885069'
p839
I1
sS'87536c'
p840
I1
sS'87536a'
p841
I3
sS'805570'
p842
I1
sS'89546b'
p843
I1
sS'7d5470'
p844
I1
sS'7d4d63'
p845
I1
sS'805671'
p846
I1
sS'7d4d64'
p847
I1
sS'784f69'
p848
I4
sS'895264'
p849
I1
sS'895265'
p850
I1
sS'895267'
p851
I1
sS'76516e'
p852
I1
sS'76516d'
p853
I1
sS'7c4f6b'
p854
I2
sS'76516f'
p855
I1
sS'894f65'
p856
I2
sS'76516b'
p857
I3
sS'904b60'
p858
I1
sS'7f516d'
p859
I1
sS'7f516a'
p860
I1
sS'85556f'
p861
I1
sS'7f516c'
p862
I1
sS'85556d'
p863
I2
sS'905a6f'
p864
I1
sS'814c5e'
p865
I1
sS'865269'
p866
I1
sS'8c4f64'
p867
I2
sS'89576d'
p868
I1
sS'6b4f6d'
p869
I1
sS'71506d'
p870
I2
sS'764a5f'
p871
I1
sS'7c4c62'
p872
I1
sS'85536a'
p873
I2
sS'76526e'
p874
I1
sS'705070'
p875
I1
sS'824e65'
p876
I6
sS'86526a'
p877
I3
sS'854f65'
p878
I2
sS'815778'
p879
I1
sS'7a4e68'
p880
I2
sS'91546a'
p881
I1
sS'7f5169'
p882
I1
sS'7e5069'
p883
I6
sS'864e65'
p884
I2
sS'965165'
p885
I1
sS'72506c'
p886
I4
sS'895166'
p887
I1
sS'924c5c'
p888
I1
sS'88566d'
p889
I1
sS'7e556f'
p890
I2
sS'7e556d'
p891
I1
sS'84556f'
p892
I1
sS'84556d'
p893
I1
sS'84556e'
p894
I2
s.