(dp0
S'5d7454'
p1
I1
sS'577058'
p2
I1
sS'557751'
p3
I1
sS'557052'
p4
I4
sS'557053'
p5
I3
sS'5a6f53'
p6
I1
sS'557054'
p7
I1
sS'587552'
p8
I7
sS'587553'
p9
I6
sS'587551'
p10
I3
sS'587557'
p11
I2
sS'587554'
p12
I5
sS'50724f'
p13
I1
sS'7f7967'
p14
I1
sS'576f58'
p15
I2
sS'567253'
p16
I6
sS'567252'
p17
I1
sS'567251'
p18
I1
sS'567256'
p19
I4
sS'567255'
p20
I3
sS'567254'
p21
I6
sS'537450'
p22
I7
sS'537451'
p23
I14
sS'537452'
p24
I14
sS'537453'
p25
I1
sS'537454'
p26
I3
sS'506d52'
p27
I1
sS'6a745c'
p28
I2
sS'576e52'
p29
I1
sS'7d7866'
p30
I1
sS'6d7661'
p31
I1
sS'546c51'
p32
I1
sS'6d7662'
p33
I2
sS'60715a'
p34
I1
sS'536f53'
p35
I1
sS'536f55'
p36
I1
sS'587856'
p37
I1
sS'4f6d55'
p38
I1
sS'60755a'
p39
I1
sS'4f6d53'
p40
I1
sS'4f6c52'
p41
I1
sS'4f6c53'
p42
I1
sS'4f6c51'
p43
I1
sS'576b51'
p44
I1
sS'557450'
p45
I7
sS'5a7755'
p46
I1
sS'5a7754'
p47
I2
sS'5a7756'
p48
I1
sS'717864'
p49
I1
sS'557654'
p50
I1
sS'587353'
p51
I1
sS'587354'
p52
I2
sS'587355'
p53
I2
sS'587357'
p54
I1
sS'50714f'
p55
I3
sS'517654'
p56
I1
sS'597554'
p57
I2
sS'597553'
p58
I8
sS'597552'
p59
I4
sS'4c6a50'
p60
I1
sS'597652'
p61
I2
sS'597653'
p62
I10
sS'5e735a'
p63
I1
sS'54734f'
p64
I2
sS'607559'
p65
I1
sS'817b6a'
p66
I1
sS'566d53'
p67
I1
sS'526c52'
p68
I1
sS'557650'
p69
I2
sS'557651'
p70
I4
sS'557652'
p71
I3
sS'6b7560'
p72
I1
sS'6c7d65'
p73
I1
sS'4f6f52'
p74
I2
sS'4f6f51'
p75
I1
sS'4d6f50'
p76
I2
sS'51724f'
p77
I3
sS'51724e'
p78
I1
sS'5e7558'
p79
I1
sS'547156'
p80
I2
sS'547154'
p81
I5
sS'547155'
p82
I5
sS'5e7557'
p83
I1
sS'5e7556'
p84
I1
sS'6e7662'
p85
I2
sS'576d51'
p86
I1
sS'547651'
p87
I5
sS'547652'
p88
I1
sS'707763'
p89
I1
sS'517053'
p90
I1
sS'6f7561'
p91
I1
sS'6b7660'
p92
I2
sS'5a7654'
p93
I4
sS'5a7655'
p94
I1
sS'4f6e52'
p95
I1
sS'5e7257'
p96
I1
sS'5a7658'
p97
I1
sS'5d7658'
p98
I1
sS'5a7557'
p99
I2
sS'5a7556'
p100
I1
sS'5a7555'
p101
I2
sS'5a7554'
p102
I2
sS'5a7553'
p103
I2
sS'5a7552'
p104
I1
sS'576c52'
p105
I1
sS'4e6f50'
p106
I1
sS'537757'
p107
I1
sS'577451'
p108
I1
sS'577452'
p109
I8
sS'4e6e53'
p110
I1
sS'4e6e52'
p111
I2
sS'5a7056'
p112
I1
sS'5a7053'
p113
I1
sS'5d715a'
p114
I2
sS'5e725a'
p115
I1
sS'5e725b'
p116
I1
sS'5e725c'
p117
I1
sS'5d7159'
p118
I1
sS'567752'
p119
I1
sS'537150'
p120
I2
sS'537153'
p121
I3
sS'537154'
p122
I5
sS'5c7659'
p123
I1
sS'567055'
p124
I1
sS'567054'
p125
I1
sS'567057'
p126
I1
sS'567053'
p127
I1
sS'5c715a'
p128
I3
sS'526e52'
p129
I2
sS'526e55'
p130
I1
sS'526e54'
p131
I1
sS'4f7053'
p132
I2
sS'4f7051'
p133
I1
sS'4f7054'
p134
I1
sS'677660'
p135
I1
sS'5b7455'
p136
I1
sS'5b7457'
p137
I2
sS'5d7857'
p138
I1
sS'507251'
p139
I1
sS'5b725a'
p140
I4
sS'507252'
p141
I1
sS'5d7859'
p142
I1
sS'527352'
p143
I4
sS'527353'
p144
I6
sS'527350'
p145
I15
sS'527351'
p146
I20
sS'5b7855'
p147
I1
sS'4e7256'
p148
I1
sS'577154'
p149
I1
sS'5c7159'
p150
I1
sS'7c7967'
p151
I1
sS'53724f'
p152
I1
sS'527454'
p153
I2
sS'7b7766'
p154
I1
sS'527451'
p155
I10
sS'527450'
p156
I1
sS'527453'
p157
I1
sS'527452'
p158
I4
sS'517153'
p159
I2
sS'517152'
p160
I6
sS'517151'
p161
I6
sS'517150'
p162
I3
sS'6d755c'
p163
I1
sS'556f54'
p164
I1
sS'5d7758'
p165
I1
sS'5d7759'
p166
I1
sS'5b7356'
p167
I1
sS'5b7354'
p168
I1
sS'5b7355'
p169
I2
sS'557351'
p170
I5
sS'557350'
p171
I4
sS'557353'
p172
I7
sS'557352'
p173
I10
sS'557355'
p174
I2
sS'557354'
p175
I9
sS'557356'
p176
I1
sS'5a7159'
p177
I1
sS'5a7158'
p178
I1
sS'577357'
p179
I1
sS'5e7758'
p180
I1
sS'577355'
p181
I3
sS'516d52'
p182
I1
sS'7b7969'
p183
I1
sS'577256'
p184
I1
sS'577254'
p185
I1
sS'577255'
p186
I2
sS'537355'
p187
I1
sS'537353'
p188
I5
sS'537352'
p189
I8
sS'537351'
p190
I25
sS'537350'
p191
I13
sS'537055'
p192
I3
sS'5c7757'
p193
I2
sS'5c7756'
p194
I1
sS'537052'
p195
I3
sS'537053'
p196
I5
sS'567151'
p197
I1
sS'567155'
p198
I3
sS'567156'
p199
I3
sS'567157'
p200
I1
sS'5c735b'
p201
I1
sS'5c735a'
p202
I1
sS'61765e'
p203
I1
sS'577553'
p204
I4
sS'577552'
p205
I8
sS'577554'
p206
I3
sS'5b7554'
p207
I1
sS'5b7556'
p208
I1
sS'507354'
p209
I1
sS'6f7a61'
p210
I1
sS'537652'
p211
I2
sS'537653'
p212
I1
sS'52714f'
p213
I2
sS'787a68'
p214
I1
sS'5c7355'
p215
I1
sS'66735d'
p216
I1
sS'506a51'
p217
I1
sS'527551'
p218
I1
sS'527552'
p219
I1
sS'52724e'
p220
I2
sS'51704e'
p221
I1
sS'577551'
p222
I9
sS'587154'
p223
I1
sS'51704f'
p224
I1
sS'587153'
p225
I1
sS'727763'
p226
I1
sS'6f765e'
p227
I1
sS'4d7050'
p228
I1
sS'536f54'
p229
I1
sS'597355'
p230
I1
sS'597354'
p231
I1
sS'597357'
p232
I1
sS'597356'
p233
I2
sS'597351'
p234
I1
sS'597353'
p235
I1
sS'597453'
p236
I3
sS'597455'
p237
I1
sS'546f52'
p238
I3
sS'557157'
p239
I1
sS'557155'
p240
I2
sS'557154'
p241
I4
sS'557153'
p242
I1
sS'557151'
p243
I1
sS'587651'
p244
I2
sS'557255'
p245
I3
sS'587653'
p246
I6
sS'557257'
p247
I1
sS'557250'
p248
I3
sS'557251'
p249
I4
sS'557252'
p250
I2
sS'557253'
p251
I9
sS'516e54'
p252
I2
sS'516e56'
p253
I2
sS'516e52'
p254
I1
sS'5f735a'
p255
I2
sS'5b7856'
p256
I1
sS'516f54'
p257
I2
sS'516f53'
p258
I1
sS'516f52'
p259
I2
sS'516f50'
p260
I1
sS'576f57'
p261
I2
sS'576f53'
p262
I1
sS'6d7760'
p263
I1
sS'6d7761'
p264
I1
sS'526f55'
p265
I3
sS'557454'
p266
I2
sS'557455'
p267
I1
sS'557452'
p268
I7
sS'557453'
p269
I6
sS'6d7560'
p270
I3
sS'557451'
p271
I11
sS'867c6d'
p272
I1
sS'4d6e51'
p273
I1
sS'6f735f'
p274
I1
sS'526f52'
p275
I3
sS'577755'
p276
I1
sS'6d7460'
p277
I1
sS'577753'
p278
I1
sS'577752'
p279
I1
sS'577454'
p280
I4
sS'577455'
p281
I1
sS'577450'
p282
I2
sS'717961'
p283
I1
sS'717962'
p284
I1
sS'577453'
p285
I4
sS'537551'
p286
I2
sS'537550'
p287
I3
sS'537553'
p288
I1
sS'567753'
p289
I1
sS'567351'
p290
I2
sS'67745d'
p291
I1
sS'5e7059'
p292
I1
sS'577353'
p293
I2
sS'577352'
p294
I2
sS'577351'
p295
I2
sS'506c53'
p296
I2
sS'577356'
p297
I1
sS'67735d'
p298
I1
sS'577354'
p299
I5
sS'537251'
p300
I3
sS'6c735e'
p301
I1
sS'5f745b'
p302
I1
sS'5a7456'
p303
I1
sS'5a7457'
p304
I2
sS'5a7455'
p305
I1
sS'526d53'
p306
I1
sS'506f53'
p307
I2
sS'5f755b'
p308
I1
sS'506f51'
p309
I1
sS'5a7355'
p310
I1
sS'5a7357'
p311
I1
sS'5a7356'
p312
I1
sS'597253'
p313
I1
sS'597254'
p314
I2
sS'5b7656'
p315
I1
sS'587754'
p316
I2
sS'587755'
p317
I1
sS'587756'
p318
I2
sS'5b7655'
p319
I1
sS'587753'
p320
I7
sS'527153'
p321
I1
sS'4f7152'
p322
I1
sS'587457'
p323
I1
sS'587455'
p324
I2
sS'587454'
p325
I2
sS'587453'
p326
I4
sS'587452'
p327
I2
sS'587451'
p328
I3
sS'587053'
p329
I1
sS'5c7656'
p330
I1
sS'707663'
p331
I1
sS'54744f'
p332
I2
sS'557553'
p333
I2
sS'557552'
p334
I6
sS'557551'
p335
I8
sS'557550'
p336
I7
sS'597854'
p337
I2
sS'557554'
p338
I1
sS'516b52'
p339
I1
sS'516b50'
p340
I1
sS'687660'
p341
I1
sS'5d725a'
p342
I4
sS'4d6d50'
p343
I1
sS'5c7554'
p344
I1
sS'4e6d51'
p345
I1
sS'516e53'
p346
I2
sS'8d7f72'
p347
I1
sS'5d7259'
p348
I1
sS'747966'
p349
I1
sS'6f7762'
p350
I1
sS'4d6c50'
p351
I1
sS'4d6c53'
p352
I1
sS'67755e'
p353
I1
sS'547251'
p354
I3
sS'547250'
p355
I2
sS'547253'
p356
I4
sS'547252'
p357
I7
sS'547255'
p358
I2
sS'547254'
p359
I2
sS'5d7558'
p360
I1
sS'547256'
p361
I2
sS'5a7856'
p362
I1
sS'536c51'
p363
I2
sS'5a7854'
p364
I1
sS'5a7855'
p365
I1
sS'4f6f54'
p366
I2
sS'506c52'
p367
I1
sS'5a7253'
p368
I1
sS'556c52'
p369
I1
sS'4e7052'
p370
I2
sS'517452'
p371
I1
sS'4e6b52'
p372
I1
sS'55724f'
p373
I2
sS'5f674b'
p374
I1
sS'517351'
p375
I8
sS'517350'
p376
I4
sS'517353'
p377
I1
sS'517352'
p378
I1
sS'6e745d'
p379
I1
sS'6c7661'
p380
I1
sS'507250'
p381
I5
sS'5b7756'
p382
I2
sS'5b7757'
p383
I1
sS'5b7754'
p384
I3
sS'657961'
p385
I1
sS'527051'
p386
I2
sS'527053'
p387
I4
sS'526f53'
p388
I3
sS'527055'
p389
I1
sS'527054'
p390
I4
sS'566f55'
p391
I1
sS'566f57'
p392
I1
sS'566f51'
p393
I1
sS'566f52'
p394
I1
sS'566f53'
p395
I2
sS'5c7555'
p396
I1
sS'5d745b'
p397
I1
sS'567451'
p398
I5
sS'567450'
p399
I6
sS'567453'
p400
I5
sS'567452'
p401
I5
sS'567455'
p402
I3
sS'567454'
p403
I6
sS'5d7059'
p404
I1
sS'507152'
p405
I4
sS'507153'
p406
I2
sS'507150'
p407
I5
sS'507151'
p408
I1
sS'5b7054'
p409
I2
sS'5c7956'
p410
I1
sS'547354'
p411
I2
sS'547355'
p412
I1
sS'4f7353'
p413
I1
sS'547357'
p414
I1
sS'547350'
p415
I10
sS'547351'
p416
I10
sS'547352'
p417
I13
sS'547353'
p418
I14
sS'5c725a'
p419
I4
sS'5d7357'
p420
I1
sS'547054'
p421
I2
sS'547052'
p422
I2
sS'62755e'
p423
I1
sS'547555'
p424
I1
sS'547552'
p425
I6
sS'547553'
p426
I3
sS'547550'
p427
I16
sS'547551'
p428
I8
sS'5d7355'
p429
I1
sS'556e53'
p430
I1
sS'517250'
p431
I5
sS'517251'
p432
I4
sS'517252'
p433
I2
sS'517253'
p434
I6
sS'5d735a'
p435
I2
sS'5d735b'
p436
I1
sS'7c7868'
p437
I1
sS'7c7866'
p438
I1
sS'6e7460'
p439
I1
sS'5a7956'
p440
I1
sS'69755f'
p441
I1
sS'527255'
p442
I1
sS'527254'
p443
I2
sS'527253'
p444
I4
sS'527252'
p445
I5
sS'527251'
p446
I8
sS'527250'
p447
I5
sS'577155'
p448
I1
sS'557254'
p449
I6
sS'577156'
p450
I2
sS'5b715a'
p451
I1
sS'577652'
p452
I9
sS'577653'
p453
I5
sS'577651'
p454
I3
sS'557256'
p455
I2
sS'577654'
p456
I2
sS'567554'
p457
I4
sS'587652'
p458
I2
sS'567550'
p459
I1
sS'567551'
p460
I12
sS'567552'
p461
I6
sS'567553'
p462
I1
sS'65735d'
p463
I1
sS'587654'
p464
I2
sS'5c7456'
p465
I1
sS'567653'
p466
I3
sS'567652'
p467
I4
sS'567651'
p468
I2
sS'5c7857'
p469
I1
sS'4e6d55'
p470
I1
sS'5b7159'
p471
I1
sS'506b50'
p472
I1
sS'6e7561'
p473
I1
sS'6e7560'
p474
I1
sS'526f54'
p475
I1
sS'537554'
p476
I1
sS'567354'
p477
I7
sS'567355'
p478
I3
sS'567352'
p479
I4
sS'567353'
p480
I7
sS'567350'
p481
I1
sS'537552'
p482
I3
sS'537252'
p483
I5
sS'537253'
p484
I5
sS'537250'
p485
I2
sS'506e56'
p486
I2
sS'4f7250'
p487
I1
sS'537254'
p488
I3
sS'527154'
p489
I4
sS'527155'
p490
I2
sS'527150'
p491
I3
sS'527151'
p492
I2
sS'527152'
p493
I6
sS'5b7654'
p494
I1
sS'66745d'
p495
I1
sS'507455'
p496
I1
sS'526a4e'
p497
I1
sS'607459'
p498
I1
sS'547453'
p499
I5
sS'547452'
p500
I7
sS'547451'
p501
I13
sS'547450'
p502
I5
sS'547455'
p503
I1
sS'597057'
p504
I1
sS'597054'
p505
I1
sS'587955'
p506
I1
sS'5f775a'
p507
I1
sS'557556'
p508
I1
sS'507053'
p509
I1
sS'507052'
p510
I3
sS'507051'
p511
I6
sS'507050'
p512
I1
sS'527052'
p513
I2
sS'587255'
p514
I2
sS'60745e'
p515
I1
sS'60745b'
p516
I1
sS'597753'
p517
I3
sS'597755'
p518
I1
sS'597754'
p519
I2
sS'547153'
p520
I1
sS'516a50'
p521
I1
sS'546e52'
p522
I2
sS'69725c'
p523
I1
s.