(dp0
S'b55261'
p1
I1
sS'944659'
p2
I2
sS'904054'
p3
I1
sS'904055'
p4
I1
sS'914459'
p5
I10
sS'8f455a'
p6
I2
sS'bc5261'
p7
I1
sS'8f4358'
p8
I12
sS'8f4359'
p9
I9
sS'ac5666'
p10
I1
sS'8f4355'
p11
I1
sS'cb636e'
p12
I1
sS'873f55'
p13
I4
sS'9c495b'
p14
I1
sS'873f56'
p15
I3
sS'af4f60'
p16
I1
sS'a15d6d'
p17
I1
sS'd07581'
p18
I1
sS'b45363'
p19
I1
sS'914054'
p20
I1
sS'9a465a'
p21
I2
sS'b34d5b'
p22
I1
sS'8f435a'
p23
I1
sS'94465a'
p24
I2
sS'954459'
p25
I1
sS'954458'
p26
I1
sS'91445a'
p27
I1
sS'8f4559'
p28
I1
sS'914458'
p29
I3
sS'b35260'
p30
I1
sS'b35261'
p31
I1
sS'b35262'
p32
I1
sS'b45260'
p33
I1
sS'904357'
p34
I1
sS'884055'
p35
I2
sS'884057'
p36
I2
sS'884056'
p37
I15
sS'9e4b5e'
p38
I1
sS'99495d'
p39
I2
sS'b5515e'
p40
I1
sS'ca6670'
p41
I1
sS'a55c6b'
p42
I1
sS'c26675'
p43
I1
sS'bc6169'
p44
I1
sS'9e4d5e'
p45
I1
sS'bf5461'
p46
I1
sS'93485b'
p47
I1
sS'9c4657'
p48
I1
sS'9c4656'
p49
I1
sS'97495b'
p50
I4
sS'97495c'
p51
I7
sS'87435a'
p52
I4
sS'9d5e70'
p53
I1
sS'9b465a'
p54
I3
sS'904358'
p55
I4
sS'a25265'
p56
I1
sS'864158'
p57
I25
sS'864159'
p58
I2
sS'a34a5e'
p59
I1
sS'864156'
p60
I1
sS'864157'
p61
I29
sS'914155'
p62
I1
sS'b7515e'
p63
I1
sS'904153'
p64
I1
sS'ab4f5f'
p65
I1
sS'9f4d62'
p66
I1
sS'ae4a58'
p67
I1
sS'ac5360'
p68
I1
sS'844157'
p69
I1
sS'87445b'
p70
I1
sS'b65160'
p71
I1
sS'9b4658'
p72
I1
sS'9b4659'
p73
I1
sS'844259'
p74
I2
sS'844258'
p75
I1
sS'874359'
p76
I1
sS'a44754'
p77
I1
sS'b2505e'
p78
I1
sS'9b4657'
p79
I1
sS'964658'
p80
I2
sS'964659'
p81
I2
sS'984b5e'
p82
I1
sS'b45261'
p83
I2
sS'aa5061'
p84
I1
sS'994859'
p85
I1
sS'90455b'
p86
I1
sS'8f445b'
p87
I1
sS'8f445a'
p88
I2
sS'90465a'
p89
I2
sS'90465b'
p90
I1
sS'94404f'
p91
I1
sS'c25865'
p92
I1
sS'be5362'
p93
I1
sS'894257'
p94
I3
sS'8e4154'
p95
I1
sS'9a4657'
p96
I1
sS'8e4459'
p97
I4
sS'9a4659'
p98
I1
sS'894258'
p99
I17
sS'894259'
p100
I11
sS'8f4459'
p101
I13
sS'8f4458'
p102
I2
sS'904659'
p103
I1
sS'99485c'
p104
I2
sS'99485b'
p105
I2
sS'99485a'
p106
I2
sS'8f4457'
p107
I1
sS'904559'
p108
I2
sS'904558'
p109
I1
sS'ac6677'
p110
I1
sS'c45c69'
p111
I1
sS'c9606c'
p112
I1
sS'96465b'
p113
I2
sS'96465c'
p114
I1
sS'96465a'
p115
I1
sS'934459'
p116
I2
sS'934458'
p117
I3
sS'994a5c'
p118
I1
sS'934457'
p119
I1
sS'884156'
p120
I2
sS'884157'
p121
I12
sS'884158'
p122
I12
sS'88435a'
p123
I3
sS'904155'
p124
I1
sS'9e4c5c'
p125
I1
sS'974a5d'
p126
I1
sS'974a5c'
p127
I2
sS'ae515f'
p128
I1
sS'b56574'
p129
I1
sS'a45e6e'
p130
I1
sS'9f5163'
p131
I1
sS'9f5162'
p132
I1
sS'9e5064'
p133
I1
sS'9e5062'
p134
I1
sS'c15b67'
p135
I1
sS'be5b65'
p136
I1
sS'c5636d'
p137
I1
sS'ad5868'
p138
I2
sS'a14d60'
p139
I1
sS'bd5464'
p140
I1
sS'9d6071'
p141
I1
sS'934054'
p142
I1
sS'a0485a'
p143
I1
sS'a15061'
p144
I1
sS'c36875'
p145
I1
sS'c26271'
p146
I1
sS'bf6471'
p147
I1
sS'b9515f'
p148
I2
sS'874157'
p149
I14
sS'874156'
p150
I2
sS'874258'
p151
I14
sS'874259'
p152
I11
sS'b55564'
p153
I1
sS'874159'
p154
I2
sS'874158'
p155
I15
sS'9d4e62'
p156
I1
sS'ae5867'
p157
I2
sS'93455a'
p158
I2
sS'bc6471'
p159
I1
sS'ae4d5d'
p160
I1
sS'984457'
p161
I1
sS'92465b'
p162
I1
sS'8b455c'
p163
I1
sS'984458'
p164
I3
sS'ac5a69'
p165
I1
sS'b25362'
p166
I2
sS'89445a'
p167
I3
sS'893f55'
p168
I2
sS'96475c'
p169
I1
sS'96475b'
p170
I4
sS'96475a'
p171
I2
sS'ac5e6e'
p172
I1
sS'b25160'
p173
I1
sS'b25161'
p174
I1
sS'bf5d6c'
p175
I1
sS'9a4758'
p176
I4
sS'9a4759'
p177
I1
sS'93465e'
p178
I1
sS'cd6e7b'
p179
I1
sS'9b4d5f'
p180
I3
sS'8e4359'
p181
I16
sS'8e4358'
p182
I6
sS'924154'
p183
I1
sS'964355'
p184
I1
sS'924659'
p185
I1
sS'9c5064'
p186
I1
sS'8b4259'
p187
I1
sS'8b4258'
p188
I5
sS'854258'
p189
I1
sS'854259'
p190
I3
sS'934558'
p191
I5
sS'934559'
p192
I6
sS'a64f61'
p193
I1
sS'9d485b'
p194
I1
sS'9d485c'
p195
I1
sS'9d485a'
p196
I1
sS'934659'
p197
I2
sS'934658'
p198
I1
sS'b45361'
p199
I1
sS'9a475a'
p200
I2
sS'9a475b'
p201
I4
sS'a45c6d'
p202
I1
sS'89435b'
p203
I2
sS'89435a'
p204
I2
sS'964758'
p205
I1
sS'b34f5d'
p206
I1
sS'91455b'
p207
I1
sS'91455a'
p208
I3
sS'b95260'
p209
I1
sS'9c5e6f'
p210
I1
sS'c35d68'
p211
I1
sS'8a4258'
p212
I18
sS'8a4259'
p213
I6
sS'8a4257'
p214
I2
sS'a14e61'
p215
I1
sS'a14e60'
p216
I1
sS'd3707b'
p217
I1
sS'ad5867'
p218
I1
sS'ac505f'
p219
I1
sS'914558'
p220
I2
sS'914559'
p221
I1
sS'a84e61'
p222
I1
sS'a14654'
p223
I1
sS'a14657'
p224
I1
sS'd1717c'
p225
I1
sS'b65361'
p226
I1
sS'8a425a'
p227
I1
sS'984859'
p228
I1
sS'b75664'
p229
I1
sS'aa505f'
p230
I1
sS'97465a'
p231
I1
sS'8b435a'
p232
I5
sS'8e4259'
p233
I1
sS'b35665'
p234
I1
sS'a2475d'
p235
I1
sS'b05868'
p236
I1
sS'95465a'
p237
I1
sS'b55361'
p238
I1
sS'b85160'
p239
I1
sS'9a4d60'
p240
I2
sS'9f4659'
p241
I1
sS'9f4656'
p242
I1
sS'b1535f'
p243
I1
sS'9a4d61'
p244
I1
sS'924054'
p245
I1
sS'924055'
p246
I1
sS'a24e62'
p247
I1
sS'8b4357'
p248
I1
sS'8b4358'
p249
I1
sS'8b4359'
p250
I4
sS'a54f5f'
p251
I2
sS'8e4257'
p252
I1
sS'bf5663'
p253
I1
sS'98485d'
p254
I1
sS'98485b'
p255
I1
sS'98485c'
p256
I2
sS'98485a'
p257
I1
sS'9b5165'
p258
I1
sS'bd5c6b'
p259
I1
sS'c86974'
p260
I1
sS'c76974'
p261
I1
sS'b85462'
p262
I2
sS'944458'
p263
I2
sS'944459'
p264
I1
sS'954659'
p265
I1
sS'8c4458'
p266
I1
sS'84435a'
p267
I2
sS'9c4658'
p268
I1
sS'8c4359'
p269
I9
sS'8c4358'
p270
I4
sS'c65b66'
p271
I1
sS'8a4359'
p272
I9
sS'8a4358'
p273
I4
sS'b85261'
p274
I1
sS'ac5766'
p275
I1
sS'ac5767'
p276
I1
sS'9c475b'
p277
I1
sS'9c475a'
p278
I1
sS'9a5668'
p279
I1
sS'9e4a5f'
p280
I1
sS'a85867'
p281
I2
sS'97475c'
p282
I3
sS'a65e6e'
p283
I1
sS'97475a'
p284
I2
sS'a04e5e'
p285
I1
sS'84445a'
p286
I1
sS'8a445b'
p287
I1
sS'84445b'
p288
I2
sS'b15361'
p289
I1
sS'8a435a'
p290
I2
sS'a14758'
p291
I1
sS'94485b'
p292
I1
sS'94485c'
p293
I1
sS'8c435a'
p294
I5
sS'a04a5f'
p295
I1
sS'914356'
p296
I2
sS'8c435b'
p297
I1
sS'914359'
p298
I1
sS'844358'
p299
I1
sS'8c445a'
p300
I6
sS'c25f6b'
p301
I1
sS'cb6a75'
p302
I1
sS'b24e5c'
p303
I1
sS'aa5d6c'
p304
I1
sS'b75160'
p305
I1
sS'a05266'
p306
I1
sS'b25668'
p307
I1
sS'ab5666'
p308
I1
sS'aa5b6a'
p309
I1
sS'9c4756'
p310
I1
sS'b75765'
p311
I1
sS'9c4758'
p312
I2
sS'9c4759'
p313
I3
sS'99465a'
p314
I1
sS'b85762'
p315
I1
sS'904355'
p316
I1
sS'904458'
p317
I4
sS'904459'
p318
I9
sS'ad5467'
p319
I1
sS'904359'
p320
I10
sS'904457'
p321
I3
sS'9d5768'
p322
I1
sS'9f4759'
p323
I1
sS'a74e5d'
p324
I1
sS'a74e5f'
p325
I1
sS'98495c'
p326
I6
sS'974758'
p327
I1
sS'c06673'
p328
I1
sS'bd5967'
p329
I1
sS'8f465c'
p330
I1
sS'ac5868'
p331
I1
sS'94455a'
p332
I1
sS'88435b'
p333
I1
sS'a2586a'
p334
I1
sS'c15461'
p335
I1
sS'90445a'
p336
I2
sS'874056'
p337
I6
sS'874057'
p338
I3
sS'874055'
p339
I2
sS'994659'
p340
I1
sS'994658'
p341
I2
sS'b45665'
p342
I1
sS'b45664'
p343
I2
sS'c65d69'
p344
I1
sS'994657'
p345
I2
sS'944559'
p346
I1
sS'944558'
p347
I2
sS'9d5164'
p348
I1
sS'8e4258'
p349
I4
sS'96495c'
p350
I2
sS'96495b'
p351
I1
sS'944557'
p352
I2
sS'9e4d60'
p353
I2
sS'a65869'
p354
I1
sS'844158'
p355
I3
sS'9f475a'
p356
I1
sS'9a4c60'
p357
I1
sS'9a495f'
p358
I1
sS'97465b'
p359
I1
sS'9a495d'
p360
I4
sS'9a495e'
p361
I1
sS'9a495b'
p362
I1
sS'8c4257'
p363
I2
sS'8c4258'
p364
I7
sS'8c4259'
p365
I5
sS'ba606f'
p366
I1
sS'9a4556'
p367
I1
sS'9a4557'
p368
I3
sS'c96974'
p369
I1
sS'8d4155'
p370
I1
sS'ad6473'
p371
I1
sS'bc5362'
p372
I1
sS'a44f5c'
p373
I1
sS'a35467'
p374
I1
sS'8d4259'
p375
I2
sS'8d4258'
p376
I4
sS'8d4257'
p377
I1
sS'8d4256'
p378
I1
sS'c26470'
p379
I1
sS'a04758'
p380
I2
sS'b75260'
p381
I1
sS'a04757'
p382
I1
sS'b65260'
p383
I1
sS'8e4256'
p384
I1
sS'b75262'
p385
I1
sS'95485c'
p386
I1
sS'95485b'
p387
I2
sS'8c425a'
p388
I1
sS'b35566'
p389
I1
sS'8e455c'
p390
I2
sS'b35564'
p391
I1
sS'974658'
p392
I2
sS'b85765'
p393
I1
sS'864257'
p394
I1
sS'864259'
p395
I17
sS'864258'
p396
I3
sS'9e586b'
p397
I1
sS'c76b78'
p398
I1
sS'88445b'
p399
I2
sS'b6505d'
p400
I1
sS'b6505e'
p401
I1
sS'894359'
p402
I2
sS'c46874'
p403
I1
sS'894358'
p404
I1
sS'9b4959'
p405
I1
sS'9b4958'
p406
I1
sS'ba5866'
p407
I1
sS'be6170'
p408
I1
sS'99475d'
p409
I1
sS'93475c'
p410
I1
sS'8c4459'
p411
I3
sS'99475a'
p412
I2
sS'99475b'
p413
I3
sS'93475e'
p414
I1
sS'964559'
p415
I3
sS'964558'
p416
I3
sS'c05562'
p417
I1
sS'994b5e'
p418
I1
sS'ad5561'
p419
I1
sS'af5867'
p420
I2
sS'c15c67'
p421
I1
sS'c86975'
p422
I1
sS'9f4f62'
p423
I1
sS'854056'
p424
I22
sS'994757'
p425
I1
sS'96455a'
p426
I1
sS'96455b'
p427
I1
sS'994758'
p428
I1
sS'c66c78'
p429
I1
sS'984a5c'
p430
I1
sS'884259'
p431
I4
sS'884258'
p432
I13
sS'984a5d'
p433
I1
sS'a24a5d'
p434
I1
sS'c85f6c'
p435
I1
sS'884257'
p436
I1
sS'b55462'
p437
I1
sS'96485d'
p438
I2
sS'b55664'
p439
I1
sS'b7515f'
p440
I1
sS'894158'
p441
I15
sS'96485b'
p442
I2
sS'96485c'
p443
I3
sS'a95d6d'
p444
I1
sS'894157'
p445
I16
sS'894156'
p446
I2
sS'8d4458'
p447
I1
sS'9e5263'
p448
I1
sS'8e4458'
p449
I3
sS'ab5d6c'
p450
I1
sS'a04d60'
p451
I1
sS'9a485b'
p452
I3
sS'9a485a'
p453
I3
sS'b14d5c'
p454
I1
sS'ba5765'
p455
I1
sS'98414c'
p456
I1
sS'a04658'
p457
I1
sS'a74d60'
p458
I1
sS'9d4759'
p459
I1
sS'b3515e'
p460
I1
sS'aa5766'
p461
I1
sS'95495c'
p462
I1
sS'9c5162'
p463
I1
sS'a36376'
p464
I1
sS'b6515f'
p465
I1
sS'b6515e'
p466
I1
sS'c56b78'
p467
I1
sS'8e445a'
p468
I3
sS'b15964'
p469
I1
sS'9b4353'
p470
I1
sS'b55767'
p471
I1
sS'9f5363'
p472
I1
sS'864057'
p473
I7
sS'864056'
p474
I6
sS'c66a7a'
p475
I1
sS'9d475a'
p476
I2
sS'b85665'
p477
I1
sS'9d475b'
p478
I4
sS'ad5666'
p479
I1
sS'b95665'
p480
I1
sS'9b4859'
p481
I1
sS'a8505f'
p482
I1
sS'a65161'
p483
I1
sS'a24c60'
p484
I1
sS'9f4a5a'
p485
I1
sS'bc6674'
p486
I1
sS'964457'
p487
I2
sS'964458'
p488
I1
sS'8d4056'
p489
I1
sS'9e485b'
p490
I1
sS'ae5767'
p491
I1
sS'bf606b'
p492
I1
sS'b15363'
p493
I1
sS'9b4456'
p494
I1
sS'9b4759'
p495
I3
sS'b04c59'
p496
I1
sS'984758'
p497
I1
sS'9d5d6d'
p498
I1
sS'bb5969'
p499
I1
sS'9b4b60'
p500
I1
sS'9b485a'
p501
I4
sS'9b485b'
p502
I3
sS'883f55'
p503
I10
sS'934154'
p504
I1
sS'934155'
p505
I1
sS'a7495e'
p506
I1
sS'8e435a'
p507
I1
sS'98475a'
p508
I1
sS'8b4157'
p509
I2
sS'98475c'
p510
I2
sS'98475b'
p511
I2
sS'98475d'
p512
I1
sS'9c4a5f'
p513
I1
sS'9b475b'
p514
I2
sS'9c4c60'
p515
I1
sS'894055'
p516
I11
sS'894056'
p517
I12
sS'894057'
p518
I2
sS'ab5868'
p519
I1
sS'9d4d61'
p520
I3
sS'9d4d60'
p521
I1
sS'854159'
p522
I1
sS'c06870'
p523
I1
sS'ae5666'
p524
I1
sS'b25261'
p525
I1
sS'c15a65'
p526
I1
sS'ae5061'
p527
I1
sS'bb5866'
p528
I1
sS'92455a'
p529
I4
sS'9e4657'
p530
I1
sS'92455b'
p531
I2
sS'be5662'
p532
I2
sS'974458'
p533
I1
sS'b55262'
p534
I1
sS'a24659'
p535
I1
sS'9e4659'
p536
I1
sS'c85e6b'
p537
I1
sS'8a4157'
p538
I2
sS'8a4156'
p539
I1
sS'ce707d'
p540
I1
sS'8b4156'
p541
I1
sS'9d4659'
p542
I1
sS'8a4158'
p543
I13
sS'c86a76'
p544
I1
sS'914156'
p545
I1
sS'914154'
p546
I1
sS'924256'
p547
I1
sS'b95866'
p548
I1
sS'9d4959'
p549
I1
sS'a16173'
p550
I1
sS'b95868'
p551
I1
sS'c15764'
p552
I1
sS'b05362'
p553
I1
sS'ba525f'
p554
I1
sS'924559'
p555
I2
sS'924558'
p556
I1
sS'a1495d'
p557
I1
sS'9c5467'
p558
I1
sS'ca6d77'
p559
I1
sS'914659'
p560
I1
sS'b85d6b'
p561
I1
sS'9f4c5e'
p562
I1
sS'8f4259'
p563
I2
sS'9a4a5d'
p564
I1
sS'b95766'
p565
I2
sS'a65b6b'
p566
I1
sS'a65b6c'
p567
I1
sS'854157'
p568
I2
sS'9c485b'
p569
I1
sS'b65765'
p570
I1
sS'b65766'
p571
I1
sS'854156'
p572
I1
sS'984659'
p573
I2
sS'ad5b6b'
p574
I1
sS'984559'
p575
I2
sS'984558'
p576
I3
sS'984556'
p577
I1
sS'9f495b'
p578
I1
sS'95455b'
p579
I2
sS'95455a'
p580
I4
sS'9b586a'
p581
I1
sS'b65867'
p582
I1
sS'b34e5d'
p583
I1
sS'91465a'
p584
I3
sS'93445a'
p585
I2
sS'91465b'
p586
I1
sS'94475a'
p587
I1
sS'94475b'
p588
I2
sS'a75366'
p589
I1
sS'b65463'
p590
I1
sS'9c5669'
p591
I1
sS'954558'
p592
I2
sS'954559'
p593
I5
sS'b85564'
p594
I1
sS'9c5c6c'
p595
I1
sS'98455a'
p596
I1
sS'b65261'
p597
I1
sS'98465a'
p598
I1
sS'98465b'
p599
I2
sS'c5616d'
p600
I1
sS'9c4859'
p601
I2
sS'8d4357'
p602
I1
sS'a65a6a'
p603
I1
sS'8d4358'
p604
I17
sS'8d4359'
p605
I6
sS'854057'
p606
I3
sS'854359'
p607
I1
sS'97485c'
p608
I2
sS'97485b'
p609
I1
sS'8d4459'
p610
I5
sS'97485d'
p611
I2
sS'ad4f60'
p612
I1
sS'9c4456'
p613
I1
sS'974558'
p614
I1
sS'974559'
p615
I4
sS'924359'
p616
I1
sS'924358'
p617
I1
sS'8b445c'
p618
I1
sS'8b445b'
p619
I1
sS'8b445a'
p620
I3
sS'9e4757'
p621
I2
sS'9e4758'
p622
I1
sS'a64d61'
p623
I1
sS'924357'
p624
I1
sS'92445a'
p625
I1
sS'af505d'
p626
I1
sS'a34e5f'
p627
I2
sS'8a4055'
p628
I1
sS'8a4056'
p629
I1
sS'8a4057'
p630
I1
sS'9e5d6e'
p631
I1
sS'bb5462'
p632
I1
sS'd07179'
p633
I1
sS'b25464'
p634
I1
sS'b25463'
p635
I1
sS'844057'
p636
I3
sS'8d445a'
p637
I7
sS'8d435a'
p638
I2
sS'bd5e6d'
p639
I1
sS'9e5566'
p640
I1
sS'b75766'
p641
I3
sS'ce727c'
p642
I1
sS'9d5061'
p643
I1
sS'9d5062'
p644
I1
sS'9e475a'
p645
I3
sS'924458'
p646
I5
sS'924459'
p647
I4
sS'ab5060'
p648
I1
sS'8c4056'
p649
I1
sS'b96371'
p650
I1
sS'8b4459'
p651
I2
sS'844056'
p652
I1
s.