HW_DEVICE="attiny84"
hw_syshz="8000000"
hw_swuart0_pin_rxd="pin_pb0"
hw_swuart0_pin_txd="pin_pb0"
hw_swuart0_autosync="sync_5_1"
hw_swuart0_compare="counter1compare0"
hw_swuart0_clk_div="1"

00000000 <__vectors>:
   0:	10 c0       	rjmp	.+32     	; 0x22 <__ctors_end>
   2:	1f c0       	rjmp	.+62     	; 0x42 <__bad_interrupt>
   4:	1e c0       	rjmp	.+60     	; 0x42 <__bad_interrupt>
   6:	1e c0       	rjmp	.+60     	; 0x44 <__vector_3>
   8:	1c c0       	rjmp	.+56     	; 0x42 <__bad_interrupt>
   a:	1b c0       	rjmp	.+54     	; 0x42 <__bad_interrupt>
   c:	3d c0       	rjmp	.+122    	; 0x88 <__vector_6>
   e:	19 c0       	rjmp	.+50     	; 0x42 <__bad_interrupt>
  10:	18 c0       	rjmp	.+48     	; 0x42 <__bad_interrupt>
  12:	17 c0       	rjmp	.+46     	; 0x42 <__bad_interrupt>
  14:	16 c0       	rjmp	.+44     	; 0x42 <__bad_interrupt>
  16:	15 c0       	rjmp	.+42     	; 0x42 <__bad_interrupt>
  18:	14 c0       	rjmp	.+40     	; 0x42 <__bad_interrupt>
  1a:	13 c0       	rjmp	.+38     	; 0x42 <__bad_interrupt>
  1c:	12 c0       	rjmp	.+36     	; 0x42 <__bad_interrupt>
  1e:	11 c0       	rjmp	.+34     	; 0x42 <__bad_interrupt>
  20:	10 c0       	rjmp	.+32     	; 0x42 <__bad_interrupt>

00000022 <__ctors_end>:
  22:	11 24       	eor	r1, r1
  24:	1f be       	out	0x3f, r1	; 63
  26:	cf e5       	ldi	r28, 0x5F	; 95
  28:	d2 e0       	ldi	r29, 0x02	; 2
  2a:	de bf       	out	0x3e, r29	; 62
  2c:	cd bf       	out	0x3d, r28	; 61

0000002e <__do_clear_bss>:
  2e:	10 e0       	ldi	r17, 0x00	; 0
  30:	a0 e6       	ldi	r26, 0x60	; 96
  32:	b0 e0       	ldi	r27, 0x00	; 0
  34:	01 c0       	rjmp	.+2      	; 0x38 <.do_clear_bss_start>

00000036 <.do_clear_bss_loop>:
  36:	1d 92       	st	X+, r1

00000038 <.do_clear_bss_start>:
  38:	ac 36       	cpi	r26, 0x6C	; 108
  3a:	b1 07       	cpc	r27, r17
  3c:	e1 f7       	brne	.-8      	; 0x36 <.do_clear_bss_loop>
  3e:	83 d0       	rcall	.+262    	; 0x146 <main>
  40:	68 c1       	rjmp	.+720    	; 0x312 <_exit>

00000042 <__bad_interrupt>:
  42:	de cf       	rjmp	.-68     	; 0x0 <__vectors>

00000044 <__vector_3>:
  44:	8f 93       	push	r24
  46:	9f 93       	push	r25
  48:	8c b5       	in	r24, 0x2c	; 44
  4a:	78 94       	sei
  4c:	9d b5       	in	r25, 0x2d	; 45
  4e:	af 93       	push	r26
  50:	af b7       	in	r26, 0x3f	; 63
  52:	af 93       	push	r26
  54:	9e 9b       	sbis	0x13, 6	; 19
  56:	05 c1       	rjmp	.+522    	; 0x262 <_hw_swuart0_sync>
  58:	b0 99       	sbic	0x16, 0	; 22
  5a:	10 c0       	rjmp	.+32     	; 0x7c <_hw_swuart0_st99>
  5c:	ab b7       	in	r26, 0x3b	; 59
  5e:	af 7d       	andi	r26, 0xDF	; 223
  60:	ab bf       	out	0x3b, r26	; 59
  62:	a0 91 68 00 	lds	r26, 0x0068
  66:	8a 0f       	add	r24, r26
  68:	a0 91 69 00 	lds	r26, 0x0069
  6c:	9a 1f       	adc	r25, r26
  6e:	9b bd       	out	0x2b, r25	; 43
  70:	8a bd       	out	0x2a, r24	; 42
  72:	88 e0       	ldi	r24, 0x08	; 8
  74:	80 93 67 00 	sts	0x0067, r24
  78:	59 9a       	sbi	0x0b, 1	; 11
  7a:	61 9a       	sbi	0x0c, 1	; 12

0000007c <_hw_swuart0_st99>:
  7c:	af 91       	pop	r26
  7e:	af bf       	out	0x3f, r26	; 63
  80:	af 91       	pop	r26
  82:	9f 91       	pop	r25
  84:	8f 91       	pop	r24
  86:	18 95       	reti

00000088 <__vector_6>:
  88:	ff 93       	push	r31
  8a:	ff b7       	in	r31, 0x3f	; 63
  8c:	ff 93       	push	r31
  8e:	ef 93       	push	r30
  90:	e0 91 6a 00 	lds	r30, 0x006A
  94:	f0 91 6b 00 	lds	r31, 0x006B
  98:	df 93       	push	r29
  9a:	da b5       	in	r29, 0x2a	; 42
  9c:	ed 0f       	add	r30, r29
  9e:	db b5       	in	r29, 0x2b	; 43
  a0:	fd 1f       	adc	r31, r29
  a2:	df 91       	pop	r29
  a4:	fb bd       	out	0x2b, r31	; 43
  a6:	ea bd       	out	0x2a, r30	; 42
  a8:	9c 99       	sbic	0x13, 4	; 19
  aa:	29 c0       	rjmp	.+82     	; 0xfe <_hw_swuart0_tx>
  ac:	78 94       	sei
  ae:	f6 b3       	in	r31, 0x16	; 22
  b0:	f0 fb       	bst	r31, 0
  b2:	f0 91 66 00 	lds	r31, 0x0066
  b6:	f6 95       	lsr	r31
  b8:	f7 f9       	bld	r31, 7
  ba:	f0 93 66 00 	sts	0x0066, r31
  be:	f0 91 67 00 	lds	r31, 0x0067
  c2:	f1 50       	subi	r31, 0x01	; 1
  c4:	f0 93 67 00 	sts	0x0067, r31
  c8:	52 f0       	brmi	.+20     	; 0xde <_hw_swuart0_rxeof>
  ca:	21 f4       	brne	.+8      	; 0xd4 <_hw_swuart0_cmpend>
  cc:	f0 91 66 00 	lds	r31, 0x0066
  d0:	f0 93 65 00 	sts	0x0065, r31

000000d4 <_hw_swuart0_cmpend>:
  d4:	ef 91       	pop	r30
  d6:	ff 91       	pop	r31
  d8:	ff bf       	out	0x3f, r31	; 63
  da:	ff 91       	pop	r31
  dc:	18 95       	reti

000000de <_hw_swuart0_rxeof>:
  de:	f3 b3       	in	r31, 0x13	; 19
  e0:	f0 f9       	bld	r31, 0
  e2:	f0 62       	ori	r31, 0x20	; 32
  e4:	f6 fd       	sbrc	r31, 6
  e6:	f4 60       	ori	r31, 0x04	; 4
  e8:	f0 64       	ori	r31, 0x40	; 64
  ea:	f3 bb       	out	0x13, r31	; 19
  ec:	61 98       	cbi	0x0c, 1	; 12
  ee:	f0 e2       	ldi	r31, 0x20	; 32
  f0:	fa bf       	out	0x3a, r31	; 58
  f2:	f8 94       	cli
  f4:	fb b7       	in	r31, 0x3b	; 59
  f6:	f0 62       	ori	r31, 0x20	; 32
  f8:	78 94       	sei
  fa:	fb bf       	out	0x3b, r31	; 59
  fc:	eb cf       	rjmp	.-42     	; 0xd4 <_hw_swuart0_cmpend>

000000fe <_hw_swuart0_tx>:
  fe:	f0 91 66 00 	lds	r31, 0x0066
 102:	f6 95       	lsr	r31
 104:	18 f4       	brcc	.+6      	; 0x10c <_hw_swuart0_tx0>

00000106 <_hw_swuart0_tx1>:
 106:	78 94       	sei
 108:	c0 9a       	sbi	0x18, 0	; 24
 10a:	02 c0       	rjmp	.+4      	; 0x110 <_hw_swuart0_txn>

0000010c <_hw_swuart0_tx0>:
 10c:	78 94       	sei
 10e:	c0 98       	cbi	0x18, 0	; 24

00000110 <_hw_swuart0_txn>:
 110:	f0 93 66 00 	sts	0x0066, r31
 114:	f0 91 67 00 	lds	r31, 0x0067
 118:	f1 50       	subi	r31, 0x01	; 1
 11a:	f0 93 67 00 	sts	0x0067, r31
 11e:	2a f0       	brmi	.+10     	; 0x12a <_hw_swuart0_txeof>
 120:	19 f4       	brne	.+6      	; 0x128 <_hw_swuart0_txn+0x18>
 122:	f3 e0       	ldi	r31, 0x03	; 3
 124:	f0 93 66 00 	sts	0x0066, r31
 128:	d5 cf       	rjmp	.-86     	; 0xd4 <_hw_swuart0_cmpend>

0000012a <_hw_swuart0_txeof>:
 12a:	9d 9a       	sbi	0x13, 5	; 19
 12c:	61 98       	cbi	0x0c, 1	; 12
 12e:	b8 98       	cbi	0x17, 0	; 23
 130:	c0 98       	cbi	0x18, 0	; 24
 132:	9b 9a       	sbi	0x13, 3	; 19
 134:	9c 98       	cbi	0x13, 4	; 19
 136:	f0 e2       	ldi	r31, 0x20	; 32
 138:	fa bf       	out	0x3a, r31	; 58
 13a:	f8 94       	cli
 13c:	fb b7       	in	r31, 0x3b	; 59
 13e:	f0 62       	ori	r31, 0x20	; 32
 140:	78 94       	sei
 142:	fb bf       	out	0x3b, r31	; 59
 144:	c7 cf       	rjmp	.-114    	; 0xd4 <_hw_swuart0_cmpend>

00000146 <main>:
 146:	80 e2       	ldi	r24, 0x20	; 32
 148:	8b bf       	out	0x3b, r24	; 59
 14a:	8a bf       	out	0x3a, r24	; 58
 14c:	85 bf       	out	0x35, r24	; 53
 14e:	81 e0       	ldi	r24, 0x01	; 1
 150:	80 bd       	out	0x20, r24	; 32
 152:	8e bd       	out	0x2e, r24	; 46
 154:	78 94       	sei
 156:	9e 99       	sbic	0x13, 6	; 19
 158:	02 c0       	rjmp	.+4      	; 0x15e <main+0x18>
 15a:	88 95       	sleep
 15c:	fc cf       	rjmp	.-8      	; 0x156 <main+0x10>
 15e:	84 e2       	ldi	r24, 0x24	; 36
 160:	5b d0       	rcall	.+182    	; 0x218 <_hw_swuart0_putbyte>
 162:	c1 e0       	ldi	r28, 0x01	; 1
 164:	88 95       	sleep
 166:	9a 9b       	sbis	0x13, 2	; 19
 168:	fd cf       	rjmp	.-6      	; 0x164 <main+0x1e>
 16a:	50 d0       	rcall	.+160    	; 0x20c <_hw_swuart0_getbyte>
 16c:	e0 91 64 00 	lds	r30, 0x0064
 170:	e1 11       	cpse	r30, r1
 172:	09 c0       	rjmp	.+18     	; 0x186 <main+0x40>
 174:	98 2f       	mov	r25, r24
 176:	9f 7d       	andi	r25, 0xDF	; 223
 178:	95 34       	cpi	r25, 0x45	; 69
 17a:	a1 f7       	brne	.-24     	; 0x164 <main+0x1e>
 17c:	80 93 60 00 	sts	0x0060, r24
 180:	c0 93 64 00 	sts	0x0064, r28
 184:	ef cf       	rjmp	.-34     	; 0x164 <main+0x1e>
 186:	e4 30       	cpi	r30, 0x04	; 4
 188:	48 f4       	brcc	.+18     	; 0x19c <main+0x56>
 18a:	91 e0       	ldi	r25, 0x01	; 1
 18c:	9e 0f       	add	r25, r30
 18e:	90 93 64 00 	sts	0x0064, r25
 192:	f0 e0       	ldi	r31, 0x00	; 0
 194:	e0 5a       	subi	r30, 0xA0	; 160
 196:	ff 4f       	sbci	r31, 0xFF	; 255
 198:	80 83       	st	Z, r24
 19a:	e4 cf       	rjmp	.-56     	; 0x164 <main+0x1e>
 19c:	10 92 64 00 	sts	0x0064, r1
 1a0:	8a 30       	cpi	r24, 0x0A	; 10
 1a2:	89 f5       	brne	.+98     	; 0x206 <main+0xc0>
 1a4:	80 91 61 00 	lds	r24, 0x0061
 1a8:	90 91 62 00 	lds	r25, 0x0062
 1ac:	81 15       	cp	r24, r1
 1ae:	22 e0       	ldi	r18, 0x02	; 2
 1b0:	92 07       	cpc	r25, r18
 1b2:	48 f5       	brcc	.+82     	; 0x206 <main+0xc0>
 1b4:	20 91 60 00 	lds	r18, 0x0060
 1b8:	25 34       	cpi	r18, 0x45	; 69
 1ba:	41 f4       	brne	.+16     	; 0x1cc <main+0x86>
 1bc:	20 91 63 00 	lds	r18, 0x0063
 1c0:	9f bb       	out	0x1f, r25	; 31
 1c2:	8e bb       	out	0x1e, r24	; 30
 1c4:	2d bb       	out	0x1d, r18	; 29
 1c6:	e2 9a       	sbi	0x1c, 2	; 28
 1c8:	e1 9a       	sbi	0x1c, 1	; 28
 1ca:	1b c0       	rjmp	.+54     	; 0x202 <main+0xbc>
 1cc:	80 91 63 00 	lds	r24, 0x0063
 1d0:	9f ef       	ldi	r25, 0xFF	; 255
 1d2:	98 0f       	add	r25, r24
 1d4:	90 93 63 00 	sts	0x0063, r25
 1d8:	88 23       	and	r24, r24
 1da:	99 f0       	breq	.+38     	; 0x202 <main+0xbc>
 1dc:	80 91 61 00 	lds	r24, 0x0061
 1e0:	90 91 62 00 	lds	r25, 0x0062
 1e4:	9f bb       	out	0x1f, r25	; 31
 1e6:	8e bb       	out	0x1e, r24	; 30
 1e8:	e0 9a       	sbi	0x1c, 0	; 28
 1ea:	8d b3       	in	r24, 0x1d	; 29
 1ec:	15 d0       	rcall	.+42     	; 0x218 <_hw_swuart0_putbyte>
 1ee:	80 91 61 00 	lds	r24, 0x0061
 1f2:	90 91 62 00 	lds	r25, 0x0062
 1f6:	01 96       	adiw	r24, 0x01	; 1
 1f8:	90 93 62 00 	sts	0x0062, r25
 1fc:	80 93 61 00 	sts	0x0061, r24
 200:	e5 cf       	rjmp	.-54     	; 0x1cc <main+0x86>
 202:	84 e2       	ldi	r24, 0x24	; 36
 204:	01 c0       	rjmp	.+2      	; 0x208 <main+0xc2>
 206:	81 e2       	ldi	r24, 0x21	; 33
 208:	07 d0       	rcall	.+14     	; 0x218 <_hw_swuart0_putbyte>
 20a:	ac cf       	rjmp	.-168    	; 0x164 <main+0x1e>

0000020c <_hw_swuart0_getbyte>:
 20c:	9a 9b       	sbis	0x13, 2	; 19
 20e:	fe cf       	rjmp	.-4      	; 0x20c <_hw_swuart0_getbyte>
 210:	9a 98       	cbi	0x13, 2	; 19
 212:	80 91 65 00 	lds	r24, 0x0065
 216:	08 95       	ret

00000218 <_hw_swuart0_putbyte>:
 218:	98 e0       	ldi	r25, 0x08	; 8

0000021a <_hw_swuart0_putbits>:
 21a:	20 d0       	rcall	.+64     	; 0x25c <_hw_swuart0_wait_ready>
 21c:	9d 9b       	sbis	0x13, 5	; 19
 21e:	02 c0       	rjmp	.+4      	; 0x224 <_hw_swuart0_putbits+0xa>
 220:	59 9b       	sbis	0x0b, 1	; 11
 222:	fe cf       	rjmp	.-4      	; 0x220 <_hw_swuart0_putbits+0x6>
 224:	ab b7       	in	r26, 0x3b	; 59
 226:	af 7d       	andi	r26, 0xDF	; 223
 228:	ab bf       	out	0x3b, r26	; 59
 22a:	80 93 66 00 	sts	0x0066, r24
 22e:	83 e5       	ldi	r24, 0x53	; 83
 230:	83 bb       	out	0x13, r24	; 19
 232:	90 93 67 00 	sts	0x0067, r25
 236:	c0 9a       	sbi	0x18, 0	; 24
 238:	b8 9a       	sbi	0x17, 0	; 23
 23a:	f8 94       	cli
 23c:	8c b5       	in	r24, 0x2c	; 44
 23e:	9d b5       	in	r25, 0x2d	; 45
 240:	78 94       	sei
 242:	c0 98       	cbi	0x18, 0	; 24
 244:	a0 91 6a 00 	lds	r26, 0x006A
 248:	b0 91 6b 00 	lds	r27, 0x006B
 24c:	95 97       	sbiw	r26, 0x25	; 37
 24e:	8a 0f       	add	r24, r26
 250:	9b 1f       	adc	r25, r27
 252:	9b bd       	out	0x2b, r25	; 43
 254:	8a bd       	out	0x2a, r24	; 42
 256:	59 9a       	sbi	0x0b, 1	; 11
 258:	61 9a       	sbi	0x0c, 1	; 12
 25a:	08 95       	ret

0000025c <_hw_swuart0_wait_ready>:
 25c:	61 99       	sbic	0x0c, 1	; 12
 25e:	fe cf       	rjmp	.-4      	; 0x25c <_hw_swuart0_wait_ready>
 260:	08 95       	ret

00000262 <_hw_swuart0_sync>:
 262:	b0 99       	sbic	0x16, 0	; 22
 264:	0b c0       	rjmp	.+22     	; 0x27c <_hw_swuart0_sync+0x1a>
 266:	8a bd       	out	0x2a, r24	; 42
 268:	9b bd       	out	0x2b, r25	; 43
 26a:	a0 91 6a 00 	lds	r26, 0x006A
 26e:	a0 93 68 00 	sts	0x0068, r26
 272:	a0 91 6b 00 	lds	r26, 0x006B
 276:	a0 93 69 00 	sts	0x0069, r26
 27a:	00 cf       	rjmp	.-512    	; 0x7c <_hw_swuart0_st99>
 27c:	cf 93       	push	r28
 27e:	bf 93       	push	r27
 280:	df 93       	push	r29
 282:	aa b5       	in	r26, 0x2a	; 42
 284:	8a 1b       	sub	r24, r26
 286:	80 93 6a 00 	sts	0x006A, r24
 28a:	bb b5       	in	r27, 0x2b	; 43
 28c:	9b 0b       	sbc	r25, r27
 28e:	90 93 6b 00 	sts	0x006B, r25
 292:	dc 01       	movw	r26, r24
 294:	aa 0f       	add	r26, r26
 296:	bb 1f       	adc	r27, r27
 298:	aa 0f       	add	r26, r26
 29a:	bb 1f       	adc	r27, r27
 29c:	a8 0f       	add	r26, r24
 29e:	b9 1f       	adc	r27, r25
 2a0:	ec 01       	movw	r28, r24
 2a2:	22 96       	adiw	r28, 0x02	; 2
 2a4:	d6 95       	lsr	r29
 2a6:	c7 95       	ror	r28
 2a8:	d6 95       	lsr	r29
 2aa:	c7 95       	ror	r28
 2ac:	ac 1b       	sub	r26, r28
 2ae:	bd 0b       	sbc	r27, r29
 2b0:	80 91 68 00 	lds	r24, 0x0068
 2b4:	8a 17       	cp	r24, r26
 2b6:	90 91 69 00 	lds	r25, 0x0069
 2ba:	9b 07       	cpc	r25, r27
 2bc:	30 f1       	brcs	.+76     	; 0x30a <_hw_swuart0_sync+0xa8>
 2be:	ac 0f       	add	r26, r28
 2c0:	bd 1f       	adc	r27, r29
 2c2:	ac 0f       	add	r26, r28
 2c4:	bd 1f       	adc	r27, r29
 2c6:	8a 17       	cp	r24, r26
 2c8:	9b 07       	cpc	r25, r27
 2ca:	f8 f4       	brcc	.+62     	; 0x30a <_hw_swuart0_sync+0xa8>
 2cc:	80 91 6a 00 	lds	r24, 0x006A
 2d0:	90 91 6b 00 	lds	r25, 0x006B
 2d4:	dc 01       	movw	r26, r24
 2d6:	11 96       	adiw	r26, 0x01	; 1
 2d8:	b6 95       	lsr	r27
 2da:	a7 95       	ror	r26
 2dc:	8a 0f       	add	r24, r26
 2de:	9b 1f       	adc	r25, r27
 2e0:	8b 53       	subi	r24, 0x3B	; 59
 2e2:	90 40       	sbci	r25, 0x00	; 0
 2e4:	80 93 68 00 	sts	0x0068, r24
 2e8:	90 93 69 00 	sts	0x0069, r25
 2ec:	8a b5       	in	r24, 0x2a	; 42
 2ee:	90 91 6a 00 	lds	r25, 0x006A
 2f2:	89 0f       	add	r24, r25
 2f4:	8a bd       	out	0x2a, r24	; 42
 2f6:	8b b5       	in	r24, 0x2b	; 43
 2f8:	90 91 6b 00 	lds	r25, 0x006B
 2fc:	89 1f       	adc	r24, r25
 2fe:	8b bd       	out	0x2b, r24	; 43
 300:	80 e0       	ldi	r24, 0x00	; 0
 302:	80 93 67 00 	sts	0x0067, r24
 306:	59 9a       	sbi	0x0b, 1	; 11
 308:	61 9a       	sbi	0x0c, 1	; 12
 30a:	df 91       	pop	r29
 30c:	bf 91       	pop	r27
 30e:	cf 91       	pop	r28
 310:	b5 ce       	rjmp	.-662    	; 0x7c <_hw_swuart0_st99>

00000312 <_exit>:
 312:	f8 94       	cli

00000314 <__stop_program>:
 314:	ff cf       	rjmp	.-2      	; 0x314 <__stop_program>
