HW_DEVICE="atmega328p"
HW_SYSHZ="16000000"
PIN_LED="pb5"
REFERENCE="bandgap"
PIN_ANALOG_INPUT="pc0"
EDGE="falling"
COUNTER="counter0"
COUNTER_CLK_DIV="64"
COMPARE="compare0"
ON_TIME="0.001"

00000000 <__vectors>:
   0:	0c 94 34 00 	jmp	0x68	; 0x68 <__ctors_end>
   4:	0c 94 3e 00 	jmp	0x7c	; 0x7c <__bad_interrupt>
   8:	0c 94 3e 00 	jmp	0x7c	; 0x7c <__bad_interrupt>
   c:	0c 94 3e 00 	jmp	0x7c	; 0x7c <__bad_interrupt>
  10:	0c 94 3e 00 	jmp	0x7c	; 0x7c <__bad_interrupt>
  14:	0c 94 3e 00 	jmp	0x7c	; 0x7c <__bad_interrupt>
  18:	0c 94 3e 00 	jmp	0x7c	; 0x7c <__bad_interrupt>
  1c:	0c 94 3e 00 	jmp	0x7c	; 0x7c <__bad_interrupt>
  20:	0c 94 3e 00 	jmp	0x7c	; 0x7c <__bad_interrupt>
  24:	0c 94 3e 00 	jmp	0x7c	; 0x7c <__bad_interrupt>
  28:	0c 94 3e 00 	jmp	0x7c	; 0x7c <__bad_interrupt>
  2c:	0c 94 3e 00 	jmp	0x7c	; 0x7c <__bad_interrupt>
  30:	0c 94 3e 00 	jmp	0x7c	; 0x7c <__bad_interrupt>
  34:	0c 94 3e 00 	jmp	0x7c	; 0x7c <__bad_interrupt>
  38:	0c 94 40 00 	jmp	0x80	; 0x80 <__vector_14>
  3c:	0c 94 3e 00 	jmp	0x7c	; 0x7c <__bad_interrupt>
  40:	0c 94 3e 00 	jmp	0x7c	; 0x7c <__bad_interrupt>
  44:	0c 94 3e 00 	jmp	0x7c	; 0x7c <__bad_interrupt>
  48:	0c 94 3e 00 	jmp	0x7c	; 0x7c <__bad_interrupt>
  4c:	0c 94 3e 00 	jmp	0x7c	; 0x7c <__bad_interrupt>
  50:	0c 94 3e 00 	jmp	0x7c	; 0x7c <__bad_interrupt>
  54:	0c 94 3e 00 	jmp	0x7c	; 0x7c <__bad_interrupt>
  58:	0c 94 3e 00 	jmp	0x7c	; 0x7c <__bad_interrupt>
  5c:	0c 94 5c 00 	jmp	0xb8	; 0xb8 <__vector_23>
  60:	0c 94 3e 00 	jmp	0x7c	; 0x7c <__bad_interrupt>
  64:	0c 94 3e 00 	jmp	0x7c	; 0x7c <__bad_interrupt>

00000068 <__ctors_end>:
  68:	11 24       	eor	r1, r1
  6a:	1f be       	out	0x3f, r1	; 63
  6c:	cf ef       	ldi	r28, 0xFF	; 255
  6e:	d8 e0       	ldi	r29, 0x08	; 8
  70:	de bf       	out	0x3e, r29	; 62
  72:	cd bf       	out	0x3d, r28	; 61
  74:	0e 94 7d 00 	call	0xfa	; 0xfa <main>
  78:	0c 94 8e 00 	jmp	0x11c	; 0x11c <_exit>

0000007c <__bad_interrupt>:
  7c:	0c 94 00 00 	jmp	0	; 0x0 <__vectors>

00000080 <__vector_14>:
  80:	1f 92       	push	r1
  82:	0f 92       	push	r0
  84:	0f b6       	in	r0, 0x3f	; 63
  86:	0f 92       	push	r0
  88:	11 24       	eor	r1, r1
  8a:	8f 93       	push	r24
  8c:	ef 93       	push	r30
  8e:	ff 93       	push	r31
  90:	ee e6       	ldi	r30, 0x6E	; 110
  92:	f0 e0       	ldi	r31, 0x00	; 0
  94:	80 81       	ld	r24, Z
  96:	8d 7f       	andi	r24, 0xFD	; 253
  98:	80 83       	st	Z, r24
  9a:	2d 98       	cbi	0x05, 5	; 5
  9c:	80 b7       	in	r24, 0x30	; 48
  9e:	80 61       	ori	r24, 0x10	; 16
  a0:	80 bf       	out	0x30, r24	; 48
  a2:	80 b7       	in	r24, 0x30	; 48
  a4:	88 60       	ori	r24, 0x08	; 8
  a6:	80 bf       	out	0x30, r24	; 48
  a8:	ff 91       	pop	r31
  aa:	ef 91       	pop	r30
  ac:	8f 91       	pop	r24
  ae:	0f 90       	pop	r0
  b0:	0f be       	out	0x3f, r0	; 63
  b2:	0f 90       	pop	r0
  b4:	1f 90       	pop	r1
  b6:	18 95       	reti

000000b8 <__vector_23>:
  b8:	1f 92       	push	r1
  ba:	0f 92       	push	r0
  bc:	0f b6       	in	r0, 0x3f	; 63
  be:	0f 92       	push	r0
  c0:	11 24       	eor	r1, r1
  c2:	8f 93       	push	r24
  c4:	ef 93       	push	r30
  c6:	ff 93       	push	r31
  c8:	80 b7       	in	r24, 0x30	; 48
  ca:	87 7f       	andi	r24, 0xF7	; 247
  cc:	80 bf       	out	0x30, r24	; 48
  ce:	2d 9a       	sbi	0x05, 5	; 5
  d0:	83 b5       	in	r24, 0x23	; 35
  d2:	81 68       	ori	r24, 0x81	; 129
  d4:	83 bd       	out	0x23, r24	; 35
  d6:	16 bc       	out	0x26, r1	; 38
  d8:	83 b5       	in	r24, 0x23	; 35
  da:	8f 77       	andi	r24, 0x7F	; 127
  dc:	83 bd       	out	0x23, r24	; 35
  de:	a9 9a       	sbi	0x15, 1	; 21
  e0:	ee e6       	ldi	r30, 0x6E	; 110
  e2:	f0 e0       	ldi	r31, 0x00	; 0
  e4:	80 81       	ld	r24, Z
  e6:	82 60       	ori	r24, 0x02	; 2
  e8:	80 83       	st	Z, r24
  ea:	ff 91       	pop	r31
  ec:	ef 91       	pop	r30
  ee:	8f 91       	pop	r24
  f0:	0f 90       	pop	r0
  f2:	0f be       	out	0x3f, r0	; 63
  f4:	0f 90       	pop	r0
  f6:	1f 90       	pop	r1
  f8:	18 95       	reti

000000fa <main>:
  fa:	81 e0       	ldi	r24, 0x01	; 1
  fc:	83 bf       	out	0x33, r24	; 51
  fe:	25 9a       	sbi	0x04, 5	; 4
 100:	93 e0       	ldi	r25, 0x03	; 3
 102:	95 bd       	out	0x25, r25	; 37
 104:	9a ef       	ldi	r25, 0xFA	; 250
 106:	97 bd       	out	0x27, r25	; 39
 108:	9a e4       	ldi	r25, 0x4A	; 74
 10a:	90 bf       	out	0x30, r25	; 48
 10c:	90 e4       	ldi	r25, 0x40	; 64
 10e:	90 93 7b 00 	sts	0x007B, r25
 112:	80 93 7e 00 	sts	0x007E, r24
 116:	78 94       	sei
 118:	88 95       	sleep
 11a:	fe cf       	rjmp	.-4      	; 0x118 <main+0x1e>

0000011c <_exit>:
 11c:	f8 94       	cli

0000011e <__stop_program>:
 11e:	ff cf       	rjmp	.-2      	; 0x11e <__stop_program>
