(dp0
S'49516c'
p1
I4
sS'49516b'
p2
I11
sS'49516a'
p3
I10
sS'49506a'
p4
I3
sS'4f5369'
p5
I1
sS'47526b'
p6
I2
sS'4b5168'
p7
I2
sS'4b5169'
p8
I3
sS'4e5267'
p9
I1
sS'4f4f60'
p10
I1
sS'595c7d'
p11
I1
sS'49536d'
p12
I1
sS'4b536f'
p13
I1
sS'4b536d'
p14
I1
sS'4b536e'
p15
I1
sS'4a516c'
p16
I2
sS'465168'
p17
I4
sS'4f556e'
p18
I1
sS'47506a'
p19
I22
sS'47506b'
p20
I1
sS'494f68'
p21
I2
sS'50556c'
p22
I1
sS'4b516a'
p23
I6
sS'4b516b'
p24
I1
sS'4b516c'
p25
I1
sS'485067'
p26
I29
sS'454e66'
p27
I3
sS'495169'
p28
I3
sS'495168'
p29
I1
sS'475065'
p30
I2
sS'475066'
p31
I13
sS'475067'
p32
I48
sS'475068'
p33
I106
sS'475069'
p34
I114
sS'49546d'
p35
I1
sS'4f5672'
p36
I1
sS'484f6a'
p37
I3
sS'4c546e'
p38
I1
sS'465066'
p39
I3
sS'485069'
p40
I56
sS'4a546f'
p41
I2
sS'4a5068'
p42
I1
sS'4b4f63'
p43
I1
sS'4b4f65'
p44
I1
sS'4a5269'
p45
I1
sS'4b4f68'
p46
I1
sS'605f7d'
p47
I1
sS'494e65'
p48
I1
sS'494e67'
p49
I3
sS'4b546f'
p50
I1
sS'4a526a'
p51
I1
sS'4a526b'
p52
I6
sS'4a526c'
p53
I6
sS'4a526d'
p54
I1
sS'4b5068'
p55
I2
sS'494f6a'
p56
I2
sS'4b526c'
p57
I5
sS'4b526b'
p58
I6
sS'4b526a'
p59
I1
sS'4b506b'
p60
I1
sS'4f546c'
p61
I1
sS'4f546b'
p62
I1
sS'465069'
p63
I26
sS'465068'
p64
I47
sS'47516a'
p65
I9
sS'47516b'
p66
I4
sS'454e65'
p67
I5
sS'474e64'
p68
I1
sS'454e67'
p69
I2
sS'4c526b'
p70
I3
sS'465067'
p71
I21
sS'4c526a'
p72
I2
sS'4c536c'
p73
I2
sS'4c536b'
p74
I1
sS'494f69'
p75
I4
sS'4c536d'
p76
I1
sS'494f67'
p77
I1
sS'494f66'
p78
I2
sS'4a506b'
p79
I3
sS'4c5065'
p80
I1
sS'4a506a'
p81
I3
sS'464f66'
p82
I12
sS'474f64'
p83
I3
sS'475167'
p84
I5
sS'4c5269'
p85
I1
sS'49536b'
p86
I1
sS'475169'
p87
I27
sS'51556a'
p88
I1
sS'51556c'
p89
I1
sS'454f67'
p90
I6
sS'454f66'
p91
I5
sS'474f68'
p92
I12
sS'464f67'
p93
I24
sS'4b5269'
p94
I2
sS'4e5166'
p95
I1
sS'4a4f67'
p96
I1
sS'4c516c'
p97
I1
sS'4a4f6a'
p98
I3
sS'4a5169'
p99
I4
sS'4a5168'
p100
I1
sS'4b5470'
p101
I1
sS'465169'
p102
I6
sS'444d65'
p103
I1
sS'4a5069'
p104
I4
sS'444d63'
p105
I1
sS'4a536c'
p106
I2
sS'474f65'
p107
I1
sS'4a4e65'
p108
I1
sS'474f67'
p109
I14
sS'474f66'
p110
I15
sS'474f69'
p111
I7
sS'4d536a'
p112
I1
sS'48506b'
p113
I3
sS'48506a'
p114
I22
sS'454d62'
p115
I1
sS'485168'
p116
I14
sS'485169'
p117
I20
sS'485167'
p118
I2
sS'484f66'
p119
I2
sS'484f67'
p120
I4
sS'4a5066'
p121
I1
sS'484f68'
p122
I10
sS'484f69'
p123
I8
sS'4d556d'
p124
I1
sS'4c5167'
p125
I1
sS'455069'
p126
I1
sS'4c5169'
p127
I2
sS'4c5168'
p128
I1
sS'42414c'
p129
I1
sS'535a79'
p130
I1
sS'4a516b'
p131
I5
sS'4a516a'
p132
I3
sS'51546b'
p133
I1
sS'464f68'
p134
I8
sS'485066'
p135
I1
sS'464f65'
p136
I5
sS'494e68'
p137
I2
sS'485068'
p138
I76
sS'48516b'
p139
I10
sS'48516c'
p140
I2
sS'48516a'
p141
I9
sS'48536d'
p142
I1
sS'454c5f'
p143
I1
sS'49506b'
p144
I6
sS'4a4f66'
p145
I2
sS'4a4f64'
p146
I1
sS'4a4f69'
p147
I3
sS'475168'
p148
I24
sS'464e63'
p149
I1
sS'49526b'
p150
I1
sS'6c6587'
p151
I1
sS'49526d'
p152
I2
sS'464e66'
p153
I1
sS'464e65'
p154
I5
sS'4b5069'
p155
I2
sS'4d5470'
p156
I1
sS'46516a'
p157
I2
sS'464c62'
p158
I1
sS'4d546b'
p159
I1
sS'4d546d'
p160
I1
sS'49526c'
p161
I1
sS'495067'
p162
I4
sS'4e5165'
p163
I1
sS'455068'
p164
I3
sS'495068'
p165
I11
sS'495069'
p166
I10
sS'484e65'
p167
I1
sS'4e4f62'
p168
I1
sS'454f68'
p169
I9
sS'4f5571'
p170
I1
sS'484e68'
p171
I1
sS'48526c'
p172
I1
sS'48526b'
p173
I3
sS'4d5269'
p174
I1
s.