(dp0
S'85663b'
p1
I2
sS'9b7355'
p2
I1
sS'7c6032'
p3
I1
sS'85673c'
p4
I4
sS'85673b'
p5
I1
sS'816230'
p6
I4
sS'85673d'
p7
I1
sS'85663a'
p8
I1
sS'826437'
p9
I1
sS'80612e'
p10
I1
sS'8b6b43'
p11
I2
sS'87683e'
p12
I1
sS'816333'
p13
I2
sS'816332'
p14
I7
sS'816331'
p15
I14
sS'816330'
p16
I9
sS'806231'
p17
I1
sS'806336'
p18
I1
sS'7c6231'
p19
I1
sS'806334'
p20
I1
sS'806332'
p21
I24
sS'806333'
p22
I4
sS'806330'
p23
I15
sS'806331'
p24
I25
sS'87673c'
p25
I1
sS'7c6232'
p26
I7
sS'80622e'
p27
I10
sS'80622f'
p28
I2
sS'95714e'
p29
I1
sS'806538'
p30
I5
sS'967151'
p31
I1
sS'7e622f'
p32
I2
sS'806535'
p33
I1
sS'806537'
p34
I12
sS'826332'
p35
I4
sS'7e6336'
p36
I2
sS'7e6334'
p37
I9
sS'7e6335'
p38
I5
sS'7e6332'
p39
I23
sS'806438'
p40
I6
sS'896942'
p41
I4
sS'7e6331'
p42
I18
sS'806435'
p43
I2
sS'806434'
p44
I11
sS'806437'
p45
I43
sS'7e6234'
p46
I4
sS'7e6233'
p47
I4
sS'7e6232'
p48
I14
sS'806433'
p49
I4
sS'7e6333'
p50
I10
sS'8b6a43'
p51
I7
sS'8b6a42'
p52
I3
sS'83663b'
p53
I2
sS'81622f'
p54
I1
sS'8b6a44'
p55
I1
sS'7c6132'
p56
I1
sS'816431'
p57
I3
sS'81632f'
p58
I3
sS'7c6130'
p59
I3
sS'7f612f'
p60
I2
sS'7c6131'
p61
I1
sS'7f632f'
p62
I1
sS'816435'
p63
I2
sS'816231'
p64
I3
sS'806431'
p65
I10
sS'806230'
p66
I5
sS'83673a'
p67
I1
sS'83673c'
p68
I1
sS'83673b'
p69
I1
sS'896941'
p70
I1
sS'81612f'
p71
I3
sS'7e612f'
p72
I3
sS'7e6330'
p73
I5
sS'896a42'
p74
I1
sS'7d6033'
p75
I1
sS'7d6333'
p76
I8
sS'7d6332'
p77
I3
sS'7d6331'
p78
I2
sS'80612f'
p79
I1
sS'7d6334'
p80
I3
sS'7e6230'
p81
I10
sS'80632f'
p82
I2
sS'7d6131'
p83
I2
sS'8a6941'
p84
I2
sS'8a6942'
p85
I7
sS'7d6132'
p86
I2
sS'806436'
p87
I6
sS'836539'
p88
I2
sS'7d6232'
p89
I15
sS'7d6233'
p90
I4
sS'7d6231'
p91
I12
sS'7e6231'
p92
I11
sS'806432'
p93
I13
sS'82632f'
p94
I5
sS'826433'
p95
I2
sS'826432'
p96
I2
sS'826431'
p97
I1
sS'826430'
p98
I6
sS'826639'
p99
I1
sS'826638'
p100
I1
sS'7f6436'
p101
I31
sS'7f6437'
p102
I29
sS'7f6434'
p103
I5
sS'7f6435'
p104
I5
sS'7f6432'
p105
I4
sS'7f6433'
p106
I7
sS'7f6231'
p107
I7
sS'816438'
p108
I5
sS'826331'
p109
I2
sS'826538'
p110
I4
sS'826539'
p111
I5
sS'81622e'
p112
I2
sS'7f5c32'
p113
I1
sS'916d4a'
p114
I1
sS'826532'
p115
I3
sS'826533'
p116
I1
sS'816432'
p117
I8
sS'816433'
p118
I5
sS'816434'
p119
I3
sS'826537'
p120
I1
sS'816437'
p121
I6
sS'816539'
p122
I3
sS'816538'
p123
I4
sS'8e6b44'
p124
I2
sS'7f6235'
p125
I2
sS'8d6b44'
p126
I2
sS'816532'
p127
I1
sS'816535'
p128
I1
sS'8d6b43'
p129
I2
sS'7f6232'
p130
I1
sS'7f6233'
p131
I1
sS'7f6131'
p132
I1
sS'7d6133'
p133
I1
sS'83663a'
p134
I1
sS'7f6335'
p135
I8
sS'7f6334'
p136
I10
sS'7f6337'
p137
I2
sS'7f6336'
p138
I6
sS'7f6331'
p139
I21
sS'7f6330'
p140
I8
sS'7f6333'
p141
I8
sS'7f6332'
p142
I35
sS'82622f'
p143
I3
sS'82663a'
p144
I3
sS'8e6d47'
p145
I1
sS'8d6a43'
p146
I1
sS'7f622f'
p147
I1
sS'7f6537'
p148
I7
sS'7f6536'
p149
I2
sS'8c6a43'
p150
I12
sS'7f6538'
p151
I1
sS'7f6230'
p152
I7
sS'86663c'
p153
I1
sS'816430'
p154
I10
sS'8b6943'
p155
I3
sS'8b6942'
p156
I6
sS'86673c'
p157
I2
sS'86673d'
p158
I1
sS'7e6435'
p159
I3
sS'84673d'
p160
I4
sS'7e6436'
p161
I8
sS'84673c'
p162
I2
sS'7e6433'
p163
I1
sS'886940'
p164
I1
sS'84663b'
p165
I2
sS'84663a'
p166
I6
sS'8c6942'
p167
I2
sS'8c6b43'
p168
I4
sS'84653a'
p169
I1
sS'826330'
p170
I6
sS'8f6c46'
p171
I1
sS'8a6a42'
p172
I12
sS'8a6a43'
p173
I2
sS'7e6131'
p174
I1
sS'886a42'
p175
I1
sS'86683e'
p176
I1
s.